ARM GAS  C:\WINDOWS\cciIg2oO.s 			page 1


   1              		.cpu cortex-m3
   2              		.arch armv7-m
   3              		.fpu softvfp
   4              		.eabi_attribute 20, 1
   5              		.eabi_attribute 21, 1
   6              		.eabi_attribute 23, 3
   7              		.eabi_attribute 24, 1
   8              		.eabi_attribute 25, 1
   9              		.eabi_attribute 26, 1
  10              		.eabi_attribute 30, 1
  11              		.eabi_attribute 34, 1
  12              		.eabi_attribute 18, 4
  13              		.file	"protocol_handler.c"
  14              		.text
  15              	.Ltext0:
  16              		.cfi_sections	.debug_frame
  17              		.section	.text.crc16_update,"ax",%progbits
  18              		.align	1
  19              		.syntax unified
  20              		.thumb
  21              		.thumb_func
  23              	crc16_update:
  24              	.LVL0:
  25              	.LFB0:
  26              		.file 1 "src/protocol_handler.c"
   1:src/protocol_handler.c **** /**
   2:src/protocol_handler.c ****  * @file    protocol_handler.c
   3:src/protocol_handler.c ****  * @brief   Protocol encode/decode engine. Calls abstract HAL APIs only.
   4:src/protocol_handler.c ****  * @note    This file has NO MCU-specific includes — it works with any HAL backend.
   5:src/protocol_handler.c ****  */
   6:src/protocol_handler.c **** 
   7:src/protocol_handler.c **** #include "protocol.h"
   8:src/protocol_handler.c **** #include "can_api.h"
   9:src/protocol_handler.c **** #include "adc_api.h"
  10:src/protocol_handler.c **** #include "comm_api.h"
  11:src/protocol_handler.c **** #include "device_api.h"
  12:src/protocol_handler.c **** #include <string.h>
  13:src/protocol_handler.c **** 
  14:src/protocol_handler.c **** /*============================================================================
  15:src/protocol_handler.c ****  * Internal State
  16:src/protocol_handler.c ****  *============================================================================*/
  17:src/protocol_handler.c **** 
  18:src/protocol_handler.c **** static uint16_t g_seq_counter = 0;
  19:src/protocol_handler.c **** 
  20:src/protocol_handler.c **** /* Wait buffer for partial frame reassembly */
  21:src/protocol_handler.c **** static uint8_t  g_rx_buf[PROTOCOL_FRAME_TOTAL_MAX];
  22:src/protocol_handler.c **** static uint16_t g_rx_buf_pos = 0;
  23:src/protocol_handler.c **** static uint16_t g_rx_expected_len = 0;
  24:src/protocol_handler.c **** 
  25:src/protocol_handler.c **** /*============================================================================
  26:src/protocol_handler.c ****  * CRC16 (CRC-CCITT, polynomial 0x1021)
  27:src/protocol_handler.c ****  *============================================================================*/
  28:src/protocol_handler.c **** 
  29:src/protocol_handler.c **** static uint16_t crc16_update(uint16_t crc, uint8_t byte)
  30:src/protocol_handler.c **** {
  27              		.loc 1 30 1 view -0
  28              		.cfi_startproc
ARM GAS  C:\WINDOWS\cciIg2oO.s 			page 2


  29              		@ args = 0, pretend = 0, frame = 0
  30              		@ frame_needed = 0, uses_anonymous_args = 0
  31              		@ link register save eliminated.
  31:src/protocol_handler.c ****     crc ^= (uint16_t)byte << 8;
  32              		.loc 1 31 5 view .LVU1
  33              		.loc 1 31 9 is_stmt 0 view .LVU2
  34 0000 80EA0120 		eor	r0, r0, r1, lsl #8
  35              	.LVL1:
  32:src/protocol_handler.c ****     for (uint8_t i = 0; i < 8; i++) {
  36              		.loc 1 32 5 is_stmt 1 view .LVU3
  37              	.LBB2:
  38              		.loc 1 32 10 view .LVU4
  39              		.loc 1 32 18 is_stmt 0 view .LVU5
  40 0004 0023     		movs	r3, #0
  41              		.loc 1 32 5 view .LVU6
  42 0006 03E0     		b	.L2
  43              	.LVL2:
  44              	.L3:
  33:src/protocol_handler.c ****         if (crc & 0x8000) {
  34:src/protocol_handler.c ****             crc = (crc << 1) ^ 0x1021;
  35:src/protocol_handler.c ****         } else {
  36:src/protocol_handler.c ****             crc <<= 1;
  45              		.loc 1 36 13 is_stmt 1 view .LVU7
  46              		.loc 1 36 17 is_stmt 0 view .LVU8
  47 0008 4000     		lsls	r0, r0, #1
  48              	.LVL3:
  49              		.loc 1 36 17 view .LVU9
  50 000a 80B2     		uxth	r0, r0
  51              	.LVL4:
  52              	.L4:
  32:src/protocol_handler.c ****     for (uint8_t i = 0; i < 8; i++) {
  53              		.loc 1 32 32 is_stmt 1 discriminator 2 view .LVU10
  32:src/protocol_handler.c ****     for (uint8_t i = 0; i < 8; i++) {
  54              		.loc 1 32 33 is_stmt 0 discriminator 2 view .LVU11
  55 000c 0133     		adds	r3, r3, #1
  56              	.LVL5:
  32:src/protocol_handler.c ****     for (uint8_t i = 0; i < 8; i++) {
  57              		.loc 1 32 33 discriminator 2 view .LVU12
  58 000e DBB2     		uxtb	r3, r3
  59              	.LVL6:
  60              	.L2:
  32:src/protocol_handler.c ****     for (uint8_t i = 0; i < 8; i++) {
  61              		.loc 1 32 25 is_stmt 1 discriminator 1 view .LVU13
  32:src/protocol_handler.c ****     for (uint8_t i = 0; i < 8; i++) {
  62              		.loc 1 32 5 is_stmt 0 discriminator 1 view .LVU14
  63 0010 072B     		cmp	r3, #7
  64 0012 08D8     		bhi	.L6
  33:src/protocol_handler.c ****         if (crc & 0x8000) {
  65              		.loc 1 33 9 is_stmt 1 view .LVU15
  33:src/protocol_handler.c ****         if (crc & 0x8000) {
  66              		.loc 1 33 12 is_stmt 0 view .LVU16
  67 0014 10F4004F 		tst	r0, #32768
  68 0018 F6D0     		beq	.L3
  34:src/protocol_handler.c ****         } else {
  69              		.loc 1 34 13 is_stmt 1 view .LVU17
  34:src/protocol_handler.c ****         } else {
  70              		.loc 1 34 30 is_stmt 0 view .LVU18
ARM GAS  C:\WINDOWS\cciIg2oO.s 			page 3


  71 001a 41F22101 		movw	r1, #4129
  72 001e 81EA4000 		eor	r0, r1, r0, lsl #1
  73              	.LVL7:
  34:src/protocol_handler.c ****         } else {
  74              		.loc 1 34 17 view .LVU19
  75 0022 80B2     		uxth	r0, r0
  76              	.LVL8:
  34:src/protocol_handler.c ****         } else {
  77              		.loc 1 34 17 view .LVU20
  78 0024 F2E7     		b	.L4
  79              	.L6:
  34:src/protocol_handler.c ****         } else {
  80              		.loc 1 34 17 view .LVU21
  81              	.LBE2:
  37:src/protocol_handler.c ****         }
  38:src/protocol_handler.c ****     }
  39:src/protocol_handler.c ****     return crc;
  82              		.loc 1 39 5 is_stmt 1 view .LVU22
  40:src/protocol_handler.c **** }
  83              		.loc 1 40 1 is_stmt 0 view .LVU23
  84 0026 7047     		bx	lr
  85              		.cfi_endproc
  86              	.LFE0:
  88              		.section	.text.crc16_compute,"ax",%progbits
  89              		.align	1
  90              		.syntax unified
  91              		.thumb
  92              		.thumb_func
  94              	crc16_compute:
  95              	.LVL9:
  96              	.LFB1:
  41:src/protocol_handler.c **** 
  42:src/protocol_handler.c **** static uint16_t crc16_compute(const uint8_t *data, uint16_t length)
  43:src/protocol_handler.c **** {
  97              		.loc 1 43 1 is_stmt 1 view -0
  98              		.cfi_startproc
  99              		@ args = 0, pretend = 0, frame = 0
 100              		@ frame_needed = 0, uses_anonymous_args = 0
 101              		.loc 1 43 1 is_stmt 0 view .LVU25
 102 0000 70B5     		push	{r4, r5, r6, lr}
 103              	.LCFI0:
 104              		.cfi_def_cfa_offset 16
 105              		.cfi_offset 4, -16
 106              		.cfi_offset 5, -12
 107              		.cfi_offset 6, -8
 108              		.cfi_offset 14, -4
 109 0002 0646     		mov	r6, r0
 110 0004 0D46     		mov	r5, r1
  44:src/protocol_handler.c ****     uint16_t crc = 0xFFFF;
 111              		.loc 1 44 5 is_stmt 1 view .LVU26
 112              	.LVL10:
  45:src/protocol_handler.c ****     for (uint16_t i = 0; i < length; i++) {
 113              		.loc 1 45 5 view .LVU27
 114              	.LBB3:
 115              		.loc 1 45 10 view .LVU28
 116              		.loc 1 45 19 is_stmt 0 view .LVU29
 117 0006 0024     		movs	r4, #0
ARM GAS  C:\WINDOWS\cciIg2oO.s 			page 4


 118              	.LBE3:
  44:src/protocol_handler.c ****     uint16_t crc = 0xFFFF;
 119              		.loc 1 44 14 view .LVU30
 120 0008 4FF6FF70 		movw	r0, #65535
 121              	.LVL11:
 122              	.LBB4:
 123              		.loc 1 45 5 view .LVU31
 124 000c 04E0     		b	.L8
 125              	.LVL12:
 126              	.L9:
  46:src/protocol_handler.c ****         crc = crc16_update(crc, data[i]);
 127              		.loc 1 46 9 is_stmt 1 discriminator 3 view .LVU32
 128              		.loc 1 46 15 is_stmt 0 discriminator 3 view .LVU33
 129 000e 315D     		ldrb	r1, [r6, r4]	@ zero_extendqisi2
 130 0010 FFF7FEFF 		bl	crc16_update
 131              	.LVL13:
  45:src/protocol_handler.c ****     for (uint16_t i = 0; i < length; i++) {
 132              		.loc 1 45 38 is_stmt 1 discriminator 3 view .LVU34
  45:src/protocol_handler.c ****     for (uint16_t i = 0; i < length; i++) {
 133              		.loc 1 45 39 is_stmt 0 discriminator 3 view .LVU35
 134 0014 0134     		adds	r4, r4, #1
 135              	.LVL14:
  45:src/protocol_handler.c ****     for (uint16_t i = 0; i < length; i++) {
 136              		.loc 1 45 39 discriminator 3 view .LVU36
 137 0016 A4B2     		uxth	r4, r4
 138              	.LVL15:
 139              	.L8:
  45:src/protocol_handler.c ****     for (uint16_t i = 0; i < length; i++) {
 140              		.loc 1 45 26 is_stmt 1 discriminator 1 view .LVU37
  45:src/protocol_handler.c ****     for (uint16_t i = 0; i < length; i++) {
 141              		.loc 1 45 5 is_stmt 0 discriminator 1 view .LVU38
 142 0018 AC42     		cmp	r4, r5
 143 001a F8D3     		bcc	.L9
 144              	.LBE4:
  47:src/protocol_handler.c ****     }
  48:src/protocol_handler.c ****     return crc;
 145              		.loc 1 48 5 is_stmt 1 view .LVU39
  49:src/protocol_handler.c **** }
 146              		.loc 1 49 1 is_stmt 0 view .LVU40
 147 001c 70BD     		pop	{r4, r5, r6, pc}
 148              		.loc 1 49 1 view .LVU41
 149              		.cfi_endproc
 150              	.LFE1:
 152              		.section	.text.proto_validate_frame,"ax",%progbits
 153              		.align	1
 154              		.syntax unified
 155              		.thumb
 156              		.thumb_func
 158              	proto_validate_frame:
 159              	.LVL16:
 160              	.LFB20:
  50:src/protocol_handler.c **** 
  51:src/protocol_handler.c **** /*============================================================================
  52:src/protocol_handler.c ****  * Frame Assembly Helpers
  53:src/protocol_handler.c ****  *============================================================================*/
  54:src/protocol_handler.c **** 
  55:src/protocol_handler.c **** /**
ARM GAS  C:\WINDOWS\cciIg2oO.s 			page 5


  56:src/protocol_handler.c ****  * @brief Write a protocol frame into the output buffer.
  57:src/protocol_handler.c ****  * @param cmd       Command/response code
  58:src/protocol_handler.c ****  * @param data      Payload data (can be NULL if data_len == 0)
  59:src/protocol_handler.c ****  * @param data_len  Payload length in bytes
  60:src/protocol_handler.c ****  * @param out_buf   Output buffer (caller-allocated)
  61:src/protocol_handler.c ****  * @param out_len   Output: total frame length written
  62:src/protocol_handler.c ****  * @return 0 on success, -1 if data_len exceeds max
  63:src/protocol_handler.c ****  */
  64:src/protocol_handler.c **** static int proto_build_frame(uint8_t cmd, const uint8_t *data,
  65:src/protocol_handler.c ****                              uint16_t data_len, uint8_t *out_buf,
  66:src/protocol_handler.c ****                              uint16_t *out_len)
  67:src/protocol_handler.c **** {
  68:src/protocol_handler.c ****     if (data_len > PROTOCOL_FRAME_DATA_MAX) return -1;
  69:src/protocol_handler.c **** 
  70:src/protocol_handler.c ****     uint16_t total_len = PROTO_CALC_LENGTH(data_len);
  71:src/protocol_handler.c ****     uint16_t seq = g_seq_counter++;
  72:src/protocol_handler.c **** 
  73:src/protocol_handler.c ****     /* Header */
  74:src/protocol_handler.c ****     out_buf[0] = PROTOCOL_MAGIC_HEADER;
  75:src/protocol_handler.c ****     out_buf[1] = (uint8_t)(total_len & 0xFF);
  76:src/protocol_handler.c ****     out_buf[2] = (uint8_t)((total_len >> 8) & 0xFF);
  77:src/protocol_handler.c ****     out_buf[3] = cmd;
  78:src/protocol_handler.c ****     out_buf[4] = (uint8_t)(seq & 0xFF);
  79:src/protocol_handler.c ****     out_buf[5] = (uint8_t)((seq >> 8) & 0xFF);
  80:src/protocol_handler.c **** 
  81:src/protocol_handler.c ****     /* Data */
  82:src/protocol_handler.c ****     if (data_len > 0 && data != NULL) {
  83:src/protocol_handler.c ****         memcpy(&out_buf[PROTOCOL_FRAME_HEADER_SIZE], data, data_len);
  84:src/protocol_handler.c ****     }
  85:src/protocol_handler.c **** 
  86:src/protocol_handler.c ****     /* CRC16 over header + data */
  87:src/protocol_handler.c ****     uint16_t crc = crc16_compute(out_buf, PROTOCOL_FRAME_HEADER_SIZE + data_len);
  88:src/protocol_handler.c ****     uint16_t crc_offset = PROTOCOL_FRAME_HEADER_SIZE + data_len;
  89:src/protocol_handler.c ****     out_buf[crc_offset]     = (uint8_t)(crc & 0xFF);
  90:src/protocol_handler.c ****     out_buf[crc_offset + 1] = (uint8_t)((crc >> 8) & 0xFF);
  91:src/protocol_handler.c **** 
  92:src/protocol_handler.c ****     /* End magic */
  93:src/protocol_handler.c ****     out_buf[crc_offset + 2] = PROTOCOL_END_MAGIC;
  94:src/protocol_handler.c **** 
  95:src/protocol_handler.c ****     *out_len = total_len;
  96:src/protocol_handler.c ****     return 0;
  97:src/protocol_handler.c **** }
  98:src/protocol_handler.c **** 
  99:src/protocol_handler.c **** /**
 100:src/protocol_handler.c ****  * @brief Send a response frame (no data payload).
 101:src/protocol_handler.c ****  */
 102:src/protocol_handler.c **** static int proto_send_simple(uint8_t cmd)
 103:src/protocol_handler.c **** {
 104:src/protocol_handler.c ****     uint8_t buf[PROTOCOL_FRAME_TOTAL_MAX];
 105:src/protocol_handler.c ****     uint16_t len;
 106:src/protocol_handler.c ****     if (proto_build_frame(cmd, NULL, 0, buf, &len) != 0) return -1;
 107:src/protocol_handler.c ****     return (comm_send(buf, len, 100) == COMM_OK) ? 0 : -1;
 108:src/protocol_handler.c **** }
 109:src/protocol_handler.c **** 
 110:src/protocol_handler.c **** /**
 111:src/protocol_handler.c ****  * @brief Send a response with payload.
 112:src/protocol_handler.c ****  */
ARM GAS  C:\WINDOWS\cciIg2oO.s 			page 6


 113:src/protocol_handler.c **** static int proto_send_data(uint8_t cmd, const uint8_t *data, uint16_t data_len)
 114:src/protocol_handler.c **** {
 115:src/protocol_handler.c ****     uint8_t buf[PROTOCOL_FRAME_TOTAL_MAX];
 116:src/protocol_handler.c ****     uint16_t len;
 117:src/protocol_handler.c ****     if (proto_build_frame(cmd, data, data_len, buf, &len) != 0) return -1;
 118:src/protocol_handler.c ****     return (comm_send(buf, len, 100) == COMM_OK) ? 0 : -1;
 119:src/protocol_handler.c **** }
 120:src/protocol_handler.c **** 
 121:src/protocol_handler.c **** /*============================================================================
 122:src/protocol_handler.c ****  * Command Handlers
 123:src/protocol_handler.c ****  *============================================================================*/
 124:src/protocol_handler.c **** 
 125:src/protocol_handler.c **** static void handle_get_info(const uint8_t *data, uint16_t data_len)
 126:src/protocol_handler.c **** {
 127:src/protocol_handler.c ****     (void)data;
 128:src/protocol_handler.c ****     (void)data_len;
 129:src/protocol_handler.c **** 
 130:src/protocol_handler.c ****     device_info_t info;
 131:src/protocol_handler.c ****     device_get_info(&info);
 132:src/protocol_handler.c **** 
 133:src/protocol_handler.c ****     device_info_resp_t resp;
 134:src/protocol_handler.c ****     memset(&resp, 0, sizeof(resp));
 135:src/protocol_handler.c ****     resp.fw_major   = info.fw_major;
 136:src/protocol_handler.c ****     resp.fw_minor   = info.fw_minor;
 137:src/protocol_handler.c ****     resp.fw_patch   = info.fw_patch;
 138:src/protocol_handler.c ****     resp.protocol_version = (uint16_t)((PROTOCOL_VERSION_MAJOR << 8) | PROTOCOL_VERSION_MINOR);
 139:src/protocol_handler.c ****     resp.device_serial = info.device_serial;
 140:src/protocol_handler.c ****     strncpy(resp.mcu_model, info.mcu_model, sizeof(resp.mcu_model) - 1);
 141:src/protocol_handler.c ****     strncpy(resp.fw_description, info.fw_description, sizeof(resp.fw_description) - 1);
 142:src/protocol_handler.c **** 
 143:src/protocol_handler.c ****     proto_send_data(MSG_INFO_RESPONSE, (const uint8_t *)&resp, sizeof(resp));
 144:src/protocol_handler.c **** }
 145:src/protocol_handler.c **** 
 146:src/protocol_handler.c **** static void handle_get_capabilities(const uint8_t *data, uint16_t data_len)
 147:src/protocol_handler.c **** {
 148:src/protocol_handler.c ****     (void)data;
 149:src/protocol_handler.c ****     (void)data_len;
 150:src/protocol_handler.c **** 
 151:src/protocol_handler.c ****     device_capabilities_t caps;
 152:src/protocol_handler.c ****     device_get_capabilities(&caps);
 153:src/protocol_handler.c **** 
 154:src/protocol_handler.c ****     capabilities_resp_t resp;
 155:src/protocol_handler.c ****     memset(&resp, 0, sizeof(resp));
 156:src/protocol_handler.c ****     resp.capability_bits    = caps.capability_bits;
 157:src/protocol_handler.c ****     resp.can_channel_count  = caps.can_channel_count;
 158:src/protocol_handler.c ****     resp.max_adc_sample_rate = caps.max_adc_sample_rate;
 159:src/protocol_handler.c ****     resp.adc_resolution     = caps.adc_resolution_bits;
 160:src/protocol_handler.c ****     resp.max_can_baudrate   = caps.max_can_baudrate_kbps;
 161:src/protocol_handler.c **** 
 162:src/protocol_handler.c ****     proto_send_data(MSG_CAPABILITIES_RESP, (const uint8_t *)&resp, sizeof(resp));
 163:src/protocol_handler.c **** }
 164:src/protocol_handler.c **** 
 165:src/protocol_handler.c **** static void handle_get_status(const uint8_t *data, uint16_t data_len)
 166:src/protocol_handler.c **** {
 167:src/protocol_handler.c ****     (void)data;
 168:src/protocol_handler.c ****     (void)data_len;
 169:src/protocol_handler.c **** 
ARM GAS  C:\WINDOWS\cciIg2oO.s 			page 7


 170:src/protocol_handler.c ****     status_resp_t resp;
 171:src/protocol_handler.c ****     memset(&resp, 0, sizeof(resp));
 172:src/protocol_handler.c ****     resp.can_listening  = can_is_initialized(0) ? 1 : 0;
 173:src/protocol_handler.c ****     resp.comm_interface = (uint8_t)comm_get_current_interface();
 174:src/protocol_handler.c ****     resp.uptime_ms      = device_get_uptime_ms();
 175:src/protocol_handler.c **** 
 176:src/protocol_handler.c ****     /* Check CAN channels active */
 177:src/protocol_handler.c ****     uint8_t ch_active = 0;
 178:src/protocol_handler.c ****     for (uint8_t ch = 0; ch < can_get_channel_count(); ch++) {
 179:src/protocol_handler.c ****         if (can_is_initialized(ch)) ch_active |= (1U << ch);
 180:src/protocol_handler.c ****     }
 181:src/protocol_handler.c ****     resp.can_channels_active = ch_active;
 182:src/protocol_handler.c **** 
 183:src/protocol_handler.c ****     /* Check ADC status */
 184:src/protocol_handler.c ****     uint8_t is_sampling;
 185:src/protocol_handler.c ****     uint32_t sample_rate;
 186:src/protocol_handler.c ****     uint8_t resolution;
 187:src/protocol_handler.c ****     if (adc_get_status(&is_sampling, &sample_rate, &resolution) == ADC_OK) {
 188:src/protocol_handler.c ****         resp.adc_sampling = is_sampling;
 189:src/protocol_handler.c ****     }
 190:src/protocol_handler.c **** 
 191:src/protocol_handler.c ****     proto_send_data(MSG_STATUS_RESPONSE, (const uint8_t *)&resp, sizeof(resp));
 192:src/protocol_handler.c **** }
 193:src/protocol_handler.c **** 
 194:src/protocol_handler.c **** static void handle_get_adc_status(const uint8_t *data, uint16_t data_len)
 195:src/protocol_handler.c **** {
 196:src/protocol_handler.c ****     (void)data;
 197:src/protocol_handler.c ****     (void)data_len;
 198:src/protocol_handler.c **** 
 199:src/protocol_handler.c ****     uint8_t is_sampling = 0;
 200:src/protocol_handler.c ****     uint32_t sample_rate = 0;
 201:src/protocol_handler.c ****     uint8_t resolution = 0;
 202:src/protocol_handler.c ****     uint8_t available = adc_is_available();
 203:src/protocol_handler.c **** 
 204:src/protocol_handler.c ****     if (available) {
 205:src/protocol_handler.c ****         adc_get_status(&is_sampling, &sample_rate, &resolution);
 206:src/protocol_handler.c ****     }
 207:src/protocol_handler.c **** 
 208:src/protocol_handler.c ****     /* Simple ADC status response: [available][is_sampling][resolution][sample_rate(4)] */
 209:src/protocol_handler.c ****     uint8_t resp[7];
 210:src/protocol_handler.c ****     resp[0] = available;
 211:src/protocol_handler.c ****     resp[1] = is_sampling;
 212:src/protocol_handler.c ****     resp[2] = resolution;
 213:src/protocol_handler.c ****     resp[3] = (uint8_t)(sample_rate & 0xFF);
 214:src/protocol_handler.c ****     resp[4] = (uint8_t)((sample_rate >> 8) & 0xFF);
 215:src/protocol_handler.c ****     resp[5] = (uint8_t)((sample_rate >> 16) & 0xFF);
 216:src/protocol_handler.c ****     resp[6] = (uint8_t)((sample_rate >> 24) & 0xFF);
 217:src/protocol_handler.c **** 
 218:src/protocol_handler.c ****     proto_send_data(MSG_ADC_STATUS_RESP, resp, sizeof(resp));
 219:src/protocol_handler.c **** }
 220:src/protocol_handler.c **** 
 221:src/protocol_handler.c **** static void handle_can_set_baudrate(const uint8_t *data, uint16_t data_len)
 222:src/protocol_handler.c **** {
 223:src/protocol_handler.c ****     if (data_len < sizeof(can_set_baudrate_t)) {
 224:src/protocol_handler.c ****         proto_send_simple(MSG_NACK);
 225:src/protocol_handler.c ****         return;
 226:src/protocol_handler.c ****     }
ARM GAS  C:\WINDOWS\cciIg2oO.s 			page 8


 227:src/protocol_handler.c **** 
 228:src/protocol_handler.c ****     const can_set_baudrate_t *req = (const can_set_baudrate_t *)data;
 229:src/protocol_handler.c ****     can_status_t ret = can_set_baudrate(req->channel, req->baudrate);
 230:src/protocol_handler.c **** 
 231:src/protocol_handler.c ****     ack_resp_t ack;
 232:src/protocol_handler.c ****     ack.ack_cmd    = CMD_CAN_SET_BAUDRATE;
 233:src/protocol_handler.c ****     ack.error_code = (ret == CAN_OK) ? ERR_NONE : ERR_INVALID_PARAM;
 234:src/protocol_handler.c ****     proto_send_data(MSG_ACK, (const uint8_t *)&ack, sizeof(ack));
 235:src/protocol_handler.c **** }
 236:src/protocol_handler.c **** 
 237:src/protocol_handler.c **** static void handle_can_set_mode(const uint8_t *data, uint16_t data_len)
 238:src/protocol_handler.c **** {
 239:src/protocol_handler.c ****     if (data_len < sizeof(can_set_mode_t)) {
 240:src/protocol_handler.c ****         proto_send_simple(MSG_NACK);
 241:src/protocol_handler.c ****         return;
 242:src/protocol_handler.c ****     }
 243:src/protocol_handler.c **** 
 244:src/protocol_handler.c ****     const can_set_mode_t *req = (const can_set_mode_t *)data;
 245:src/protocol_handler.c ****     can_status_t ret = can_set_mode(req->channel, req->mode);
 246:src/protocol_handler.c **** 
 247:src/protocol_handler.c ****     ack_resp_t ack;
 248:src/protocol_handler.c ****     ack.ack_cmd    = CMD_CAN_SET_MODE;
 249:src/protocol_handler.c ****     ack.error_code = (ret == CAN_OK) ? ERR_NONE : ERR_INVALID_PARAM;
 250:src/protocol_handler.c ****     proto_send_data(MSG_ACK, (const uint8_t *)&ack, sizeof(ack));
 251:src/protocol_handler.c **** }
 252:src/protocol_handler.c **** 
 253:src/protocol_handler.c **** static void handle_can_set_filter(const uint8_t *data, uint16_t data_len)
 254:src/protocol_handler.c **** {
 255:src/protocol_handler.c ****     if (data_len < sizeof(can_set_filter_t)) {
 256:src/protocol_handler.c ****         proto_send_simple(MSG_NACK);
 257:src/protocol_handler.c ****         return;
 258:src/protocol_handler.c ****     }
 259:src/protocol_handler.c **** 
 260:src/protocol_handler.c ****     const can_set_filter_t *req = (const can_set_filter_t *)data;
 261:src/protocol_handler.c ****     can_status_t ret = can_set_filter(req->channel, req->filter_index,
 262:src/protocol_handler.c ****                                        req->filter_mode, req->filter_scale,
 263:src/protocol_handler.c ****                                        req->id_high, req->id_low,
 264:src/protocol_handler.c ****                                        req->mask_high, req->mask_low);
 265:src/protocol_handler.c **** 
 266:src/protocol_handler.c ****     ack_resp_t ack;
 267:src/protocol_handler.c ****     ack.ack_cmd    = CMD_CAN_SET_FILTER;
 268:src/protocol_handler.c ****     ack.error_code = (ret == CAN_OK) ? ERR_NONE : ERR_INVALID_PARAM;
 269:src/protocol_handler.c ****     proto_send_data(MSG_ACK, (const uint8_t *)&ack, sizeof(ack));
 270:src/protocol_handler.c **** }
 271:src/protocol_handler.c **** 
 272:src/protocol_handler.c **** static void handle_adc_set_sampling(const uint8_t *data, uint16_t data_len)
 273:src/protocol_handler.c **** {
 274:src/protocol_handler.c ****     if (data_len < sizeof(adc_set_sampling_t)) {
 275:src/protocol_handler.c ****         proto_send_simple(MSG_NACK);
 276:src/protocol_handler.c ****         return;
 277:src/protocol_handler.c ****     }
 278:src/protocol_handler.c **** 
 279:src/protocol_handler.c ****     const adc_set_sampling_t *req = (const adc_set_sampling_t *)data;
 280:src/protocol_handler.c **** 
 281:src/protocol_handler.c ****     if (!adc_is_available()) {
 282:src/protocol_handler.c ****         ack_resp_t ack;
 283:src/protocol_handler.c ****         ack.ack_cmd    = CMD_ADC_SET_SAMPLING;
ARM GAS  C:\WINDOWS\cciIg2oO.s 			page 9


 284:src/protocol_handler.c ****         ack.error_code = ERR_ADC_NOT_AVAILABLE;
 285:src/protocol_handler.c ****         proto_send_data(MSG_ACK, (const uint8_t *)&ack, sizeof(ack));
 286:src/protocol_handler.c ****         return;
 287:src/protocol_handler.c ****     }
 288:src/protocol_handler.c **** 
 289:src/protocol_handler.c ****     adc_config_t config;
 290:src/protocol_handler.c ****     config.sample_rate = req->sample_rate;
 291:src/protocol_handler.c ****     config.resolution  = req->resolution;
 292:src/protocol_handler.c ****     config.channel     = req->channel;
 293:src/protocol_handler.c ****     config.source      = ADC_SOURCE_ADC;
 294:src/protocol_handler.c **** 
 295:src/protocol_handler.c ****     adc_status_t ret = adc_init(&config);
 296:src/protocol_handler.c **** 
 297:src/protocol_handler.c ****     ack_resp_t ack;
 298:src/protocol_handler.c ****     ack.ack_cmd    = CMD_ADC_SET_SAMPLING;
 299:src/protocol_handler.c ****     ack.error_code = (ret == ADC_OK) ? ERR_NONE : ERR_INVALID_PARAM;
 300:src/protocol_handler.c ****     proto_send_data(MSG_ACK, (const uint8_t *)&ack, sizeof(ack));
 301:src/protocol_handler.c **** }
 302:src/protocol_handler.c **** 
 303:src/protocol_handler.c **** static void handle_comm_set_interface(const uint8_t *data, uint16_t data_len)
 304:src/protocol_handler.c **** {
 305:src/protocol_handler.c ****     if (data_len < sizeof(comm_set_interface_t)) {
 306:src/protocol_handler.c ****         proto_send_simple(MSG_NACK);
 307:src/protocol_handler.c ****         return;
 308:src/protocol_handler.c ****     }
 309:src/protocol_handler.c **** 
 310:src/protocol_handler.c ****     const comm_set_interface_t *req = (const comm_set_interface_t *)data;
 311:src/protocol_handler.c ****     comm_interface_t target = (req->interface == COMM_IF_USB_CDC) ?
 312:src/protocol_handler.c ****                             COMM_IF_USB_CDC : COMM_IF_USART;
 313:src/protocol_handler.c **** 
 314:src/protocol_handler.c ****     comm_status_t ret = comm_switch_interface(target, 115200);
 315:src/protocol_handler.c **** 
 316:src/protocol_handler.c ****     ack_resp_t ack;
 317:src/protocol_handler.c ****     ack.ack_cmd    = CMD_COMM_SET_INTERFACE;
 318:src/protocol_handler.c ****     ack.error_code = (ret == COMM_OK) ? ERR_NONE : ERR_COMM_TX_FAILED;
 319:src/protocol_handler.c ****     proto_send_data(MSG_ACK, (const uint8_t *)&ack, sizeof(ack));
 320:src/protocol_handler.c **** }
 321:src/protocol_handler.c **** 
 322:src/protocol_handler.c **** static void handle_can_start_listen(const uint8_t *data, uint16_t data_len)
 323:src/protocol_handler.c **** {
 324:src/protocol_handler.c ****     (void)data;
 325:src/protocol_handler.c ****     (void)data_len;
 326:src/protocol_handler.c **** 
 327:src/protocol_handler.c ****     can_status_t ret = can_start_listen(0);
 328:src/protocol_handler.c **** 
 329:src/protocol_handler.c ****     ack_resp_t ack;
 330:src/protocol_handler.c ****     ack.ack_cmd    = CMD_CAN_START_LISTEN;
 331:src/protocol_handler.c ****     ack.error_code = (ret == CAN_OK) ? ERR_NONE : ERR_HARDWARE_FAULT;
 332:src/protocol_handler.c ****     proto_send_data(MSG_ACK, (const uint8_t *)&ack, sizeof(ack));
 333:src/protocol_handler.c **** }
 334:src/protocol_handler.c **** 
 335:src/protocol_handler.c **** static void handle_can_stop_listen(const uint8_t *data, uint16_t data_len)
 336:src/protocol_handler.c **** {
 337:src/protocol_handler.c ****     (void)data;
 338:src/protocol_handler.c ****     (void)data_len;
 339:src/protocol_handler.c **** 
 340:src/protocol_handler.c ****     can_status_t ret = can_stop_listen(0);
ARM GAS  C:\WINDOWS\cciIg2oO.s 			page 10


 341:src/protocol_handler.c **** 
 342:src/protocol_handler.c ****     ack_resp_t ack;
 343:src/protocol_handler.c ****     ack.ack_cmd    = CMD_CAN_STOP_LISTEN;
 344:src/protocol_handler.c ****     ack.error_code = (ret == CAN_OK) ? ERR_NONE : ERR_HARDWARE_FAULT;
 345:src/protocol_handler.c ****     proto_send_data(MSG_ACK, (const uint8_t *)&ack, sizeof(ack));
 346:src/protocol_handler.c **** }
 347:src/protocol_handler.c **** 
 348:src/protocol_handler.c **** static void handle_adc_start_sample(const uint8_t *data, uint16_t data_len)
 349:src/protocol_handler.c **** {
 350:src/protocol_handler.c ****     (void)data;
 351:src/protocol_handler.c ****     (void)data_len;
 352:src/protocol_handler.c **** 
 353:src/protocol_handler.c ****     if (!adc_is_available()) {
 354:src/protocol_handler.c ****         ack_resp_t ack;
 355:src/protocol_handler.c ****         ack.ack_cmd    = CMD_ADC_START_SAMPLE;
 356:src/protocol_handler.c ****         ack.error_code = ERR_ADC_NOT_AVAILABLE;
 357:src/protocol_handler.c ****         proto_send_data(MSG_ACK, (const uint8_t *)&ack, sizeof(ack));
 358:src/protocol_handler.c ****         return;
 359:src/protocol_handler.c ****     }
 360:src/protocol_handler.c **** 
 361:src/protocol_handler.c ****     adc_status_t ret = adc_start_sampling();
 362:src/protocol_handler.c **** 
 363:src/protocol_handler.c ****     ack_resp_t ack;
 364:src/protocol_handler.c ****     ack.ack_cmd    = CMD_ADC_START_SAMPLE;
 365:src/protocol_handler.c ****     ack.error_code = (ret == ADC_OK) ? ERR_NONE : ERR_HARDWARE_FAULT;
 366:src/protocol_handler.c ****     proto_send_data(MSG_ACK, (const uint8_t *)&ack, sizeof(ack));
 367:src/protocol_handler.c **** }
 368:src/protocol_handler.c **** 
 369:src/protocol_handler.c **** static void handle_adc_stop_sample(const uint8_t *data, uint16_t data_len)
 370:src/protocol_handler.c **** {
 371:src/protocol_handler.c ****     (void)data;
 372:src/protocol_handler.c ****     (void)data_len;
 373:src/protocol_handler.c **** 
 374:src/protocol_handler.c ****     adc_status_t ret = adc_stop_sampling();
 375:src/protocol_handler.c **** 
 376:src/protocol_handler.c ****     ack_resp_t ack;
 377:src/protocol_handler.c ****     ack.ack_cmd    = CMD_ADC_STOP_SAMPLE;
 378:src/protocol_handler.c ****     ack.error_code = (ret == ADC_OK) ? ERR_NONE : ERR_HARDWARE_FAULT;
 379:src/protocol_handler.c ****     proto_send_data(MSG_ACK, (const uint8_t *)&ack, sizeof(ack));
 380:src/protocol_handler.c **** }
 381:src/protocol_handler.c **** 
 382:src/protocol_handler.c **** static void handle_can_send_frame(const uint8_t *data, uint16_t data_len)
 383:src/protocol_handler.c **** {
 384:src/protocol_handler.c ****     if (data_len < sizeof(can_send_frame_t)) {
 385:src/protocol_handler.c ****         proto_send_simple(MSG_NACK);
 386:src/protocol_handler.c ****         return;
 387:src/protocol_handler.c ****     }
 388:src/protocol_handler.c **** 
 389:src/protocol_handler.c ****     const can_send_frame_t *req = (const can_send_frame_t *)data;
 390:src/protocol_handler.c ****     can_status_t ret = can_send_frame(req->channel, req->can_id,
 391:src/protocol_handler.c ****                                        req->flags & 0x01,      /* IDE */
 392:src/protocol_handler.c ****                                        (req->flags >> 1) & 0x01, /* RTR */
 393:src/protocol_handler.c ****                                        req->dlc, req->data, 100);
 394:src/protocol_handler.c **** 
 395:src/protocol_handler.c ****     ack_resp_t ack;
 396:src/protocol_handler.c ****     ack.ack_cmd    = CMD_CAN_SEND_FRAME;
 397:src/protocol_handler.c ****     ack.error_code = (ret == CAN_OK) ? ERR_NONE : ERR_CAN_TX_FAILED;
ARM GAS  C:\WINDOWS\cciIg2oO.s 			page 11


 398:src/protocol_handler.c ****     proto_send_data(MSG_ACK, (const uint8_t *)&ack, sizeof(ack));
 399:src/protocol_handler.c **** }
 400:src/protocol_handler.c **** 
 401:src/protocol_handler.c **** static void handle_system_reset(const uint8_t *data, uint16_t data_len)
 402:src/protocol_handler.c **** {
 403:src/protocol_handler.c ****     (void)data;
 404:src/protocol_handler.c ****     (void)data_len;
 405:src/protocol_handler.c **** 
 406:src/protocol_handler.c ****     /* Send ACK before reset */
 407:src/protocol_handler.c ****     proto_send_simple(MSG_ACK);
 408:src/protocol_handler.c **** 
 409:src/protocol_handler.c ****     /* Small delay to allow TX to complete, then reset */
 410:src/protocol_handler.c ****     for (volatile uint32_t i = 0; i < 100000; i++) { /* busy-wait */ }
 411:src/protocol_handler.c ****     device_soft_reset();
 412:src/protocol_handler.c **** }
 413:src/protocol_handler.c **** 
 414:src/protocol_handler.c **** /*============================================================================
 415:src/protocol_handler.c ****  * Dispatch Table
 416:src/protocol_handler.c ****  *============================================================================*/
 417:src/protocol_handler.c **** 
 418:src/protocol_handler.c **** typedef void (*cmd_handler_t)(const uint8_t *data, uint16_t data_len);
 419:src/protocol_handler.c **** 
 420:src/protocol_handler.c **** typedef struct {
 421:src/protocol_handler.c ****     uint8_t cmd;
 422:src/protocol_handler.c ****     cmd_handler_t handler;
 423:src/protocol_handler.c **** } cmd_entry_t;
 424:src/protocol_handler.c **** 
 425:src/protocol_handler.c **** static const cmd_entry_t g_cmd_table[] = {
 426:src/protocol_handler.c ****     { CMD_GET_INFO,             handle_get_info },
 427:src/protocol_handler.c ****     { CMD_GET_CAPABILITIES,     handle_get_capabilities },
 428:src/protocol_handler.c ****     { CMD_GET_STATUS,           handle_get_status },
 429:src/protocol_handler.c ****     { CMD_GET_ADC_STATUS,       handle_get_adc_status },
 430:src/protocol_handler.c ****     { CMD_CAN_SET_BAUDRATE,     handle_can_set_baudrate },
 431:src/protocol_handler.c ****     { CMD_CAN_SET_MODE,         handle_can_set_mode },
 432:src/protocol_handler.c ****     { CMD_CAN_SET_FILTER,       handle_can_set_filter },
 433:src/protocol_handler.c ****     { CMD_ADC_SET_SAMPLING,     handle_adc_set_sampling },
 434:src/protocol_handler.c ****     { CMD_COMM_SET_INTERFACE,   handle_comm_set_interface },
 435:src/protocol_handler.c ****     { CMD_CAN_START_LISTEN,     handle_can_start_listen },
 436:src/protocol_handler.c ****     { CMD_CAN_STOP_LISTEN,      handle_can_stop_listen },
 437:src/protocol_handler.c ****     { CMD_ADC_START_SAMPLE,     handle_adc_start_sample },
 438:src/protocol_handler.c ****     { CMD_ADC_STOP_SAMPLE,      handle_adc_stop_sample },
 439:src/protocol_handler.c ****     { CMD_CAN_SEND_FRAME,       handle_can_send_frame },
 440:src/protocol_handler.c ****     { CMD_SYSTEM_RESET,         handle_system_reset },
 441:src/protocol_handler.c **** };
 442:src/protocol_handler.c **** 
 443:src/protocol_handler.c **** #define CMD_TABLE_SIZE (sizeof(g_cmd_table) / sizeof(g_cmd_table[0]))
 444:src/protocol_handler.c **** 
 445:src/protocol_handler.c **** /*============================================================================
 446:src/protocol_handler.c ****  * Frame Validation
 447:src/protocol_handler.c ****  *============================================================================*/
 448:src/protocol_handler.c **** 
 449:src/protocol_handler.c **** /**
 450:src/protocol_handler.c ****  * @brief Validate a complete received frame.
 451:src/protocol_handler.c ****  * @param buf       Raw frame buffer
 452:src/protocol_handler.c ****  * @param total_len Total frame length from header
 453:src/protocol_handler.c ****  * @return 0 if valid, negative on error
 454:src/protocol_handler.c ****  */
ARM GAS  C:\WINDOWS\cciIg2oO.s 			page 12


 455:src/protocol_handler.c **** static int proto_validate_frame(const uint8_t *buf, uint16_t total_len)
 456:src/protocol_handler.c **** {
 161              		.loc 1 456 1 is_stmt 1 view -0
 162              		.cfi_startproc
 163              		@ args = 0, pretend = 0, frame = 0
 164              		@ frame_needed = 0, uses_anonymous_args = 0
 457:src/protocol_handler.c ****     if (total_len < PROTOCOL_FRAME_OVERHEAD) {
 165              		.loc 1 457 5 view .LVU43
 166              		.loc 1 457 8 is_stmt 0 view .LVU44
 167 0000 0829     		cmp	r1, #8
 168 0002 19D9     		bls	.L13
 456:src/protocol_handler.c ****     if (total_len < PROTOCOL_FRAME_OVERHEAD) {
 169              		.loc 1 456 1 view .LVU45
 170 0004 38B5     		push	{r3, r4, r5, lr}
 171              	.LCFI1:
 172              		.cfi_def_cfa_offset 16
 173              		.cfi_offset 3, -16
 174              		.cfi_offset 4, -12
 175              		.cfi_offset 5, -8
 176              		.cfi_offset 14, -4
 177 0006 0446     		mov	r4, r0
 458:src/protocol_handler.c ****         return -1;
 459:src/protocol_handler.c ****     }
 460:src/protocol_handler.c **** 
 461:src/protocol_handler.c ****     if (buf[0] != PROTOCOL_MAGIC_HEADER) {
 178              		.loc 1 461 5 is_stmt 1 view .LVU46
 179              		.loc 1 461 12 is_stmt 0 view .LVU47
 180 0008 0378     		ldrb	r3, [r0]	@ zero_extendqisi2
 181              		.loc 1 461 8 view .LVU48
 182 000a A52B     		cmp	r3, #165
 183 000c 17D1     		bne	.L14
 462:src/protocol_handler.c ****         return -1;
 463:src/protocol_handler.c ****     }
 464:src/protocol_handler.c **** 
 465:src/protocol_handler.c ****     uint16_t data_len = total_len - PROTOCOL_FRAME_OVERHEAD;
 184              		.loc 1 465 5 is_stmt 1 view .LVU49
 185              		.loc 1 465 14 is_stmt 0 view .LVU50
 186 000e A1F10905 		sub	r5, r1, #9
 187 0012 ADB2     		uxth	r5, r5
 466:src/protocol_handler.c **** 
 467:src/protocol_handler.c ****     /* Check end magic */
 468:src/protocol_handler.c ****     if (buf[PROTOCOL_FRAME_HEADER_SIZE + data_len + 2] != PROTOCOL_END_MAGIC) {
 188              		.loc 1 468 5 is_stmt 1 view .LVU51
 189              		.loc 1 468 12 is_stmt 0 view .LVU52
 190 0014 4319     		adds	r3, r0, r5
 191 0016 1B7A     		ldrb	r3, [r3, #8]	@ zero_extendqisi2
 192              		.loc 1 468 8 view .LVU53
 193 0018 5A2B     		cmp	r3, #90
 194 001a 13D1     		bne	.L15
 469:src/protocol_handler.c ****         return -1;
 470:src/protocol_handler.c ****     }
 471:src/protocol_handler.c **** 
 472:src/protocol_handler.c ****     /* Validate CRC */
 473:src/protocol_handler.c ****     uint16_t computed = crc16_compute(buf, PROTOCOL_FRAME_HEADER_SIZE + data_len);
 195              		.loc 1 473 5 is_stmt 1 view .LVU54
 196              		.loc 1 473 25 is_stmt 0 view .LVU55
 197 001c 0339     		subs	r1, r1, #3
ARM GAS  C:\WINDOWS\cciIg2oO.s 			page 13


 198              	.LVL17:
 199              		.loc 1 473 25 view .LVU56
 200 001e 89B2     		uxth	r1, r1
 201 0020 FFF7FEFF 		bl	crc16_compute
 202              	.LVL18:
 474:src/protocol_handler.c ****     uint16_t received = (uint16_t)(buf[PROTOCOL_FRAME_HEADER_SIZE + data_len])
 203              		.loc 1 474 5 is_stmt 1 view .LVU57
 204              		.loc 1 474 67 is_stmt 0 view .LVU58
 205 0024 AB1D     		adds	r3, r5, #6
 206              		.loc 1 474 39 view .LVU59
 207 0026 E35C     		ldrb	r3, [r4, r3]	@ zero_extendqisi2
 475:src/protocol_handler.c ****                       | ((uint16_t)buf[PROTOCOL_FRAME_HEADER_SIZE + data_len + 1] << 8);
 208              		.loc 1 475 39 view .LVU60
 209 0028 2C44     		add	r4, r4, r5
 210              	.LVL19:
 211              		.loc 1 475 39 view .LVU61
 212 002a E279     		ldrb	r2, [r4, #7]	@ zero_extendqisi2
 474:src/protocol_handler.c ****     uint16_t received = (uint16_t)(buf[PROTOCOL_FRAME_HEADER_SIZE + data_len])
 213              		.loc 1 474 14 view .LVU62
 214 002c 43EA0223 		orr	r3, r3, r2, lsl #8
 215              	.LVL20:
 476:src/protocol_handler.c **** 
 477:src/protocol_handler.c ****     if (computed != received) {
 216              		.loc 1 477 5 is_stmt 1 view .LVU63
 217              		.loc 1 477 8 is_stmt 0 view .LVU64
 218 0030 9842     		cmp	r0, r3
 219 0032 0AD1     		bne	.L16
 478:src/protocol_handler.c ****         return -2; /* CRC mismatch */
 479:src/protocol_handler.c ****     }
 480:src/protocol_handler.c **** 
 481:src/protocol_handler.c ****     return 0;
 220              		.loc 1 481 12 view .LVU65
 221 0034 0020     		movs	r0, #0
 222              	.LVL21:
 223              	.L11:
 482:src/protocol_handler.c **** }
 224              		.loc 1 482 1 view .LVU66
 225 0036 38BD     		pop	{r3, r4, r5, pc}
 226              	.LVL22:
 227              	.L13:
 228              	.LCFI2:
 229              		.cfi_def_cfa_offset 0
 230              		.cfi_restore 3
 231              		.cfi_restore 4
 232              		.cfi_restore 5
 233              		.cfi_restore 14
 458:src/protocol_handler.c ****     }
 234              		.loc 1 458 16 view .LVU67
 235 0038 4FF0FF30 		mov	r0, #-1
 236              	.LVL23:
 237              		.loc 1 482 1 view .LVU68
 238 003c 7047     		bx	lr
 239              	.LVL24:
 240              	.L14:
 241              	.LCFI3:
 242              		.cfi_def_cfa_offset 16
 243              		.cfi_offset 3, -16
ARM GAS  C:\WINDOWS\cciIg2oO.s 			page 14


 244              		.cfi_offset 4, -12
 245              		.cfi_offset 5, -8
 246              		.cfi_offset 14, -4
 462:src/protocol_handler.c ****     }
 247              		.loc 1 462 16 view .LVU69
 248 003e 4FF0FF30 		mov	r0, #-1
 249              	.LVL25:
 462:src/protocol_handler.c ****     }
 250              		.loc 1 462 16 view .LVU70
 251 0042 F8E7     		b	.L11
 252              	.LVL26:
 253              	.L15:
 469:src/protocol_handler.c ****     }
 254              		.loc 1 469 16 view .LVU71
 255 0044 4FF0FF30 		mov	r0, #-1
 256              	.LVL27:
 469:src/protocol_handler.c ****     }
 257              		.loc 1 469 16 view .LVU72
 258 0048 F5E7     		b	.L11
 259              	.LVL28:
 260              	.L16:
 478:src/protocol_handler.c ****     }
 261              		.loc 1 478 16 view .LVU73
 262 004a 6FF00100 		mvn	r0, #1
 263              	.LVL29:
 478:src/protocol_handler.c ****     }
 264              		.loc 1 478 16 view .LVU74
 265 004e F2E7     		b	.L11
 266              		.cfi_endproc
 267              	.LFE20:
 269              		.section	.text.proto_build_frame,"ax",%progbits
 270              		.align	1
 271              		.syntax unified
 272              		.thumb
 273              		.thumb_func
 275              	proto_build_frame:
 276              	.LVL30:
 277              	.LFB2:
  67:src/protocol_handler.c ****     if (data_len > PROTOCOL_FRAME_DATA_MAX) return -1;
 278              		.loc 1 67 1 is_stmt 1 view -0
 279              		.cfi_startproc
 280              		@ args = 4, pretend = 0, frame = 0
 281              		@ frame_needed = 0, uses_anonymous_args = 0
  68:src/protocol_handler.c **** 
 282              		.loc 1 68 5 view .LVU76
  68:src/protocol_handler.c **** 
 283              		.loc 1 68 8 is_stmt 0 view .LVU77
 284 0000 B2F5807F 		cmp	r2, #256
 285 0004 2CD8     		bhi	.L24
  67:src/protocol_handler.c ****     if (data_len > PROTOCOL_FRAME_DATA_MAX) return -1;
 286              		.loc 1 67 1 view .LVU78
 287 0006 F8B5     		push	{r3, r4, r5, r6, r7, lr}
 288              	.LCFI4:
 289              		.cfi_def_cfa_offset 24
 290              		.cfi_offset 3, -24
 291              		.cfi_offset 4, -20
 292              		.cfi_offset 5, -16
ARM GAS  C:\WINDOWS\cciIg2oO.s 			page 15


 293              		.cfi_offset 6, -12
 294              		.cfi_offset 7, -8
 295              		.cfi_offset 14, -4
 296 0008 1446     		mov	r4, r2
 297 000a 1D46     		mov	r5, r3
  70:src/protocol_handler.c ****     uint16_t seq = g_seq_counter++;
 298              		.loc 1 70 5 is_stmt 1 view .LVU79
  70:src/protocol_handler.c ****     uint16_t seq = g_seq_counter++;
 299              		.loc 1 70 14 is_stmt 0 view .LVU80
 300 000c 0932     		adds	r2, r2, #9
 301              	.LVL31:
  70:src/protocol_handler.c ****     uint16_t seq = g_seq_counter++;
 302              		.loc 1 70 14 view .LVU81
 303 000e 96B2     		uxth	r6, r2
 304              	.LVL32:
  71:src/protocol_handler.c **** 
 305              		.loc 1 71 5 is_stmt 1 view .LVU82
  71:src/protocol_handler.c **** 
 306              		.loc 1 71 33 is_stmt 0 view .LVU83
 307 0010 154F     		ldr	r7, .L29
 308 0012 3B88     		ldrh	r3, [r7]
 309              	.LVL33:
  71:src/protocol_handler.c **** 
 310              		.loc 1 71 33 view .LVU84
 311 0014 03F1010C 		add	ip, r3, #1
 312 0018 A7F800C0 		strh	ip, [r7]	@ movhi
 313              	.LVL34:
  74:src/protocol_handler.c ****     out_buf[1] = (uint8_t)(total_len & 0xFF);
 314              		.loc 1 74 5 is_stmt 1 view .LVU85
  74:src/protocol_handler.c ****     out_buf[1] = (uint8_t)(total_len & 0xFF);
 315              		.loc 1 74 16 is_stmt 0 view .LVU86
 316 001c A527     		movs	r7, #165
 317 001e 2F70     		strb	r7, [r5]
  75:src/protocol_handler.c ****     out_buf[2] = (uint8_t)((total_len >> 8) & 0xFF);
 318              		.loc 1 75 5 is_stmt 1 view .LVU87
  75:src/protocol_handler.c ****     out_buf[2] = (uint8_t)((total_len >> 8) & 0xFF);
 319              		.loc 1 75 16 is_stmt 0 view .LVU88
 320 0020 6A70     		strb	r2, [r5, #1]
  76:src/protocol_handler.c ****     out_buf[3] = cmd;
 321              		.loc 1 76 5 is_stmt 1 view .LVU89
  76:src/protocol_handler.c ****     out_buf[3] = cmd;
 322              		.loc 1 76 18 is_stmt 0 view .LVU90
 323 0022 C2F30722 		ubfx	r2, r2, #8, #8
  76:src/protocol_handler.c ****     out_buf[3] = cmd;
 324              		.loc 1 76 16 view .LVU91
 325 0026 AA70     		strb	r2, [r5, #2]
  77:src/protocol_handler.c ****     out_buf[4] = (uint8_t)(seq & 0xFF);
 326              		.loc 1 77 5 is_stmt 1 view .LVU92
  77:src/protocol_handler.c ****     out_buf[4] = (uint8_t)(seq & 0xFF);
 327              		.loc 1 77 16 is_stmt 0 view .LVU93
 328 0028 E870     		strb	r0, [r5, #3]
  78:src/protocol_handler.c ****     out_buf[5] = (uint8_t)((seq >> 8) & 0xFF);
 329              		.loc 1 78 5 is_stmt 1 view .LVU94
  78:src/protocol_handler.c ****     out_buf[5] = (uint8_t)((seq >> 8) & 0xFF);
 330              		.loc 1 78 16 is_stmt 0 view .LVU95
 331 002a 2B71     		strb	r3, [r5, #4]
  79:src/protocol_handler.c **** 
ARM GAS  C:\WINDOWS\cciIg2oO.s 			page 16


 332              		.loc 1 79 5 is_stmt 1 view .LVU96
  79:src/protocol_handler.c **** 
 333              		.loc 1 79 18 is_stmt 0 view .LVU97
 334 002c 1B0A     		lsrs	r3, r3, #8
 335              	.LVL35:
  79:src/protocol_handler.c **** 
 336              		.loc 1 79 16 view .LVU98
 337 002e 6B71     		strb	r3, [r5, #5]
  82:src/protocol_handler.c ****         memcpy(&out_buf[PROTOCOL_FRAME_HEADER_SIZE], data, data_len);
 338              		.loc 1 82 5 is_stmt 1 view .LVU99
  82:src/protocol_handler.c ****         memcpy(&out_buf[PROTOCOL_FRAME_HEADER_SIZE], data, data_len);
 339              		.loc 1 82 8 is_stmt 0 view .LVU100
 340 0030 24B1     		cbz	r4, .L23
  82:src/protocol_handler.c ****         memcpy(&out_buf[PROTOCOL_FRAME_HEADER_SIZE], data, data_len);
 341              		.loc 1 82 22 discriminator 1 view .LVU101
 342 0032 19B1     		cbz	r1, .L23
  83:src/protocol_handler.c ****     }
 343              		.loc 1 83 9 is_stmt 1 view .LVU102
 344 0034 2246     		mov	r2, r4
 345 0036 A81D     		adds	r0, r5, #6
 346              	.LVL36:
  83:src/protocol_handler.c ****     }
 347              		.loc 1 83 9 is_stmt 0 view .LVU103
 348 0038 FFF7FEFF 		bl	memcpy
 349              	.LVL37:
 350              	.L23:
  87:src/protocol_handler.c ****     uint16_t crc_offset = PROTOCOL_FRAME_HEADER_SIZE + data_len;
 351              		.loc 1 87 5 is_stmt 1 view .LVU104
  87:src/protocol_handler.c ****     uint16_t crc_offset = PROTOCOL_FRAME_HEADER_SIZE + data_len;
 352              		.loc 1 87 20 is_stmt 0 view .LVU105
 353 003c 0634     		adds	r4, r4, #6
 354 003e A4B2     		uxth	r4, r4
 355 0040 2146     		mov	r1, r4
 356 0042 2846     		mov	r0, r5
 357 0044 FFF7FEFF 		bl	crc16_compute
 358              	.LVL38:
  88:src/protocol_handler.c ****     out_buf[crc_offset]     = (uint8_t)(crc & 0xFF);
 359              		.loc 1 88 5 is_stmt 1 view .LVU106
  89:src/protocol_handler.c ****     out_buf[crc_offset + 1] = (uint8_t)((crc >> 8) & 0xFF);
 360              		.loc 1 89 5 view .LVU107
  89:src/protocol_handler.c ****     out_buf[crc_offset + 1] = (uint8_t)((crc >> 8) & 0xFF);
 361              		.loc 1 89 29 is_stmt 0 view .LVU108
 362 0048 2855     		strb	r0, [r5, r4]
  90:src/protocol_handler.c **** 
 363              		.loc 1 90 5 is_stmt 1 view .LVU109
  90:src/protocol_handler.c **** 
 364              		.loc 1 90 12 is_stmt 0 view .LVU110
 365 004a 631C     		adds	r3, r4, #1
  90:src/protocol_handler.c **** 
 366              		.loc 1 90 31 view .LVU111
 367 004c C0F30720 		ubfx	r0, r0, #8, #8
 368              	.LVL39:
  90:src/protocol_handler.c **** 
 369              		.loc 1 90 29 view .LVU112
 370 0050 E854     		strb	r0, [r5, r3]
  93:src/protocol_handler.c **** 
 371              		.loc 1 93 5 is_stmt 1 view .LVU113
ARM GAS  C:\WINDOWS\cciIg2oO.s 			page 17


  93:src/protocol_handler.c **** 
 372              		.loc 1 93 12 is_stmt 0 view .LVU114
 373 0052 0234     		adds	r4, r4, #2
 374              	.LVL40:
  93:src/protocol_handler.c **** 
 375              		.loc 1 93 29 view .LVU115
 376 0054 5A23     		movs	r3, #90
 377 0056 2B55     		strb	r3, [r5, r4]
  95:src/protocol_handler.c ****     return 0;
 378              		.loc 1 95 5 is_stmt 1 view .LVU116
  95:src/protocol_handler.c ****     return 0;
 379              		.loc 1 95 14 is_stmt 0 view .LVU117
 380 0058 069B     		ldr	r3, [sp, #24]
 381 005a 1E80     		strh	r6, [r3]	@ movhi
  96:src/protocol_handler.c **** }
 382              		.loc 1 96 5 is_stmt 1 view .LVU118
  96:src/protocol_handler.c **** }
 383              		.loc 1 96 12 is_stmt 0 view .LVU119
 384 005c 0020     		movs	r0, #0
  97:src/protocol_handler.c **** 
 385              		.loc 1 97 1 view .LVU120
 386 005e F8BD     		pop	{r3, r4, r5, r6, r7, pc}
 387              	.LVL41:
 388              	.L24:
 389              	.LCFI5:
 390              		.cfi_def_cfa_offset 0
 391              		.cfi_restore 3
 392              		.cfi_restore 4
 393              		.cfi_restore 5
 394              		.cfi_restore 6
 395              		.cfi_restore 7
 396              		.cfi_restore 14
  68:src/protocol_handler.c **** 
 397              		.loc 1 68 52 view .LVU121
 398 0060 4FF0FF30 		mov	r0, #-1
 399              	.LVL42:
  97:src/protocol_handler.c **** 
 400              		.loc 1 97 1 view .LVU122
 401 0064 7047     		bx	lr
 402              	.L30:
 403 0066 00BF     		.align	2
 404              	.L29:
 405 0068 00000000 		.word	.LANCHOR0
 406              		.cfi_endproc
 407              	.LFE2:
 409              		.section	.text.proto_send_simple,"ax",%progbits
 410              		.align	1
 411              		.syntax unified
 412              		.thumb
 413              		.thumb_func
 415              	proto_send_simple:
 416              	.LVL43:
 417              	.LFB3:
 103:src/protocol_handler.c ****     uint8_t buf[PROTOCOL_FRAME_TOTAL_MAX];
 418              		.loc 1 103 1 is_stmt 1 view -0
 419              		.cfi_startproc
 420              		@ args = 0, pretend = 0, frame = 272
ARM GAS  C:\WINDOWS\cciIg2oO.s 			page 18


 421              		@ frame_needed = 0, uses_anonymous_args = 0
 103:src/protocol_handler.c ****     uint8_t buf[PROTOCOL_FRAME_TOTAL_MAX];
 422              		.loc 1 103 1 is_stmt 0 view .LVU124
 423 0000 10B5     		push	{r4, lr}
 424              	.LCFI6:
 425              		.cfi_def_cfa_offset 8
 426              		.cfi_offset 4, -8
 427              		.cfi_offset 14, -4
 428 0002 C6B0     		sub	sp, sp, #280
 429              	.LCFI7:
 430              		.cfi_def_cfa_offset 288
 104:src/protocol_handler.c ****     uint16_t len;
 431              		.loc 1 104 5 is_stmt 1 view .LVU125
 105:src/protocol_handler.c ****     if (proto_build_frame(cmd, NULL, 0, buf, &len) != 0) return -1;
 432              		.loc 1 105 5 view .LVU126
 106:src/protocol_handler.c ****     return (comm_send(buf, len, 100) == COMM_OK) ? 0 : -1;
 433              		.loc 1 106 5 view .LVU127
 106:src/protocol_handler.c ****     return (comm_send(buf, len, 100) == COMM_OK) ? 0 : -1;
 434              		.loc 1 106 9 is_stmt 0 view .LVU128
 435 0004 0DF10A03 		add	r3, sp, #10
 436 0008 0093     		str	r3, [sp]
 437 000a 03AB     		add	r3, sp, #12
 438 000c 0022     		movs	r2, #0
 439 000e 1146     		mov	r1, r2
 440 0010 FFF7FEFF 		bl	proto_build_frame
 441              	.LVL44:
 106:src/protocol_handler.c ****     return (comm_send(buf, len, 100) == COMM_OK) ? 0 : -1;
 442              		.loc 1 106 8 view .LVU129
 443 0014 50B9     		cbnz	r0, .L33
 444 0016 0446     		mov	r4, r0
 107:src/protocol_handler.c **** }
 445              		.loc 1 107 5 is_stmt 1 view .LVU130
 107:src/protocol_handler.c **** }
 446              		.loc 1 107 13 is_stmt 0 view .LVU131
 447 0018 6422     		movs	r2, #100
 448 001a BDF80A10 		ldrh	r1, [sp, #10]
 449 001e 03A8     		add	r0, sp, #12
 450 0020 FFF7FEFF 		bl	comm_send
 451              	.LVL45:
 107:src/protocol_handler.c **** }
 452              		.loc 1 107 54 view .LVU132
 453 0024 28B9     		cbnz	r0, .L36
 454              	.L31:
 108:src/protocol_handler.c **** 
 455              		.loc 1 108 1 view .LVU133
 456 0026 2046     		mov	r0, r4
 457 0028 46B0     		add	sp, sp, #280
 458              	.LCFI8:
 459              		.cfi_remember_state
 460              		.cfi_def_cfa_offset 8
 461              		@ sp needed
 462 002a 10BD     		pop	{r4, pc}
 463              	.L33:
 464              	.LCFI9:
 465              		.cfi_restore_state
 106:src/protocol_handler.c ****     return (comm_send(buf, len, 100) == COMM_OK) ? 0 : -1;
 466              		.loc 1 106 65 view .LVU134
ARM GAS  C:\WINDOWS\cciIg2oO.s 			page 19


 467 002c 4FF0FF34 		mov	r4, #-1
 468 0030 F9E7     		b	.L31
 469              	.L36:
 107:src/protocol_handler.c **** }
 470              		.loc 1 107 54 view .LVU135
 471 0032 4FF0FF34 		mov	r4, #-1
 472 0036 F6E7     		b	.L31
 473              		.cfi_endproc
 474              	.LFE3:
 476              		.section	.text.handle_system_reset,"ax",%progbits
 477              		.align	1
 478              		.syntax unified
 479              		.thumb
 480              		.thumb_func
 482              	handle_system_reset:
 483              	.LVL46:
 484              	.LFB19:
 402:src/protocol_handler.c ****     (void)data;
 485              		.loc 1 402 1 is_stmt 1 view -0
 486              		.cfi_startproc
 487              		@ args = 0, pretend = 0, frame = 8
 488              		@ frame_needed = 0, uses_anonymous_args = 0
 402:src/protocol_handler.c ****     (void)data;
 489              		.loc 1 402 1 is_stmt 0 view .LVU137
 490 0000 00B5     		push	{lr}
 491              	.LCFI10:
 492              		.cfi_def_cfa_offset 4
 493              		.cfi_offset 14, -4
 494 0002 83B0     		sub	sp, sp, #12
 495              	.LCFI11:
 496              		.cfi_def_cfa_offset 16
 403:src/protocol_handler.c ****     (void)data_len;
 497              		.loc 1 403 5 is_stmt 1 view .LVU138
 404:src/protocol_handler.c **** 
 498              		.loc 1 404 5 view .LVU139
 407:src/protocol_handler.c **** 
 499              		.loc 1 407 5 view .LVU140
 500 0004 A020     		movs	r0, #160
 501              	.LVL47:
 407:src/protocol_handler.c **** 
 502              		.loc 1 407 5 is_stmt 0 view .LVU141
 503 0006 FFF7FEFF 		bl	proto_send_simple
 504              	.LVL48:
 410:src/protocol_handler.c ****     device_soft_reset();
 505              		.loc 1 410 5 is_stmt 1 view .LVU142
 506              	.LBB5:
 410:src/protocol_handler.c ****     device_soft_reset();
 507              		.loc 1 410 10 view .LVU143
 410:src/protocol_handler.c ****     device_soft_reset();
 508              		.loc 1 410 28 is_stmt 0 view .LVU144
 509 000a 0023     		movs	r3, #0
 510 000c 0193     		str	r3, [sp, #4]
 410:src/protocol_handler.c ****     device_soft_reset();
 511              		.loc 1 410 5 view .LVU145
 512 000e 02E0     		b	.L38
 513              	.L39:
 410:src/protocol_handler.c ****     device_soft_reset();
ARM GAS  C:\WINDOWS\cciIg2oO.s 			page 20


 514              		.loc 1 410 70 is_stmt 1 discriminator 3 view .LVU146
 410:src/protocol_handler.c ****     device_soft_reset();
 515              		.loc 1 410 47 discriminator 3 view .LVU147
 410:src/protocol_handler.c ****     device_soft_reset();
 516              		.loc 1 410 48 is_stmt 0 discriminator 3 view .LVU148
 517 0010 019B     		ldr	r3, [sp, #4]
 518 0012 0133     		adds	r3, r3, #1
 519 0014 0193     		str	r3, [sp, #4]
 520              	.L38:
 410:src/protocol_handler.c ****     device_soft_reset();
 521              		.loc 1 410 35 is_stmt 1 discriminator 1 view .LVU149
 410:src/protocol_handler.c ****     device_soft_reset();
 522              		.loc 1 410 37 is_stmt 0 discriminator 1 view .LVU150
 523 0016 019A     		ldr	r2, [sp, #4]
 410:src/protocol_handler.c ****     device_soft_reset();
 524              		.loc 1 410 5 discriminator 1 view .LVU151
 525 0018 034B     		ldr	r3, .L41
 526 001a 9A42     		cmp	r2, r3
 527 001c F8D9     		bls	.L39
 528              	.LBE5:
 411:src/protocol_handler.c **** }
 529              		.loc 1 411 5 is_stmt 1 view .LVU152
 530 001e FFF7FEFF 		bl	device_soft_reset
 531              	.LVL49:
 412:src/protocol_handler.c **** 
 532              		.loc 1 412 1 is_stmt 0 view .LVU153
 533 0022 03B0     		add	sp, sp, #12
 534              	.LCFI12:
 535              		.cfi_def_cfa_offset 4
 536              		@ sp needed
 537 0024 5DF804FB 		ldr	pc, [sp], #4
 538              	.L42:
 539              		.align	2
 540              	.L41:
 541 0028 9F860100 		.word	99999
 542              		.cfi_endproc
 543              	.LFE19:
 545              		.section	.text.proto_send_data,"ax",%progbits
 546              		.align	1
 547              		.syntax unified
 548              		.thumb
 549              		.thumb_func
 551              	proto_send_data:
 552              	.LVL50:
 553              	.LFB4:
 114:src/protocol_handler.c ****     uint8_t buf[PROTOCOL_FRAME_TOTAL_MAX];
 554              		.loc 1 114 1 is_stmt 1 view -0
 555              		.cfi_startproc
 556              		@ args = 0, pretend = 0, frame = 272
 557              		@ frame_needed = 0, uses_anonymous_args = 0
 114:src/protocol_handler.c ****     uint8_t buf[PROTOCOL_FRAME_TOTAL_MAX];
 558              		.loc 1 114 1 is_stmt 0 view .LVU155
 559 0000 10B5     		push	{r4, lr}
 560              	.LCFI13:
 561              		.cfi_def_cfa_offset 8
 562              		.cfi_offset 4, -8
 563              		.cfi_offset 14, -4
ARM GAS  C:\WINDOWS\cciIg2oO.s 			page 21


 564 0002 C6B0     		sub	sp, sp, #280
 565              	.LCFI14:
 566              		.cfi_def_cfa_offset 288
 115:src/protocol_handler.c ****     uint16_t len;
 567              		.loc 1 115 5 is_stmt 1 view .LVU156
 116:src/protocol_handler.c ****     if (proto_build_frame(cmd, data, data_len, buf, &len) != 0) return -1;
 568              		.loc 1 116 5 view .LVU157
 117:src/protocol_handler.c ****     return (comm_send(buf, len, 100) == COMM_OK) ? 0 : -1;
 569              		.loc 1 117 5 view .LVU158
 117:src/protocol_handler.c ****     return (comm_send(buf, len, 100) == COMM_OK) ? 0 : -1;
 570              		.loc 1 117 9 is_stmt 0 view .LVU159
 571 0004 0DF10A03 		add	r3, sp, #10
 572 0008 0093     		str	r3, [sp]
 573 000a 03AB     		add	r3, sp, #12
 574 000c FFF7FEFF 		bl	proto_build_frame
 575              	.LVL51:
 117:src/protocol_handler.c ****     return (comm_send(buf, len, 100) == COMM_OK) ? 0 : -1;
 576              		.loc 1 117 8 view .LVU160
 577 0010 50B9     		cbnz	r0, .L45
 578 0012 0446     		mov	r4, r0
 118:src/protocol_handler.c **** }
 579              		.loc 1 118 5 is_stmt 1 view .LVU161
 118:src/protocol_handler.c **** }
 580              		.loc 1 118 13 is_stmt 0 view .LVU162
 581 0014 6422     		movs	r2, #100
 582 0016 BDF80A10 		ldrh	r1, [sp, #10]
 583 001a 03A8     		add	r0, sp, #12
 584 001c FFF7FEFF 		bl	comm_send
 585              	.LVL52:
 118:src/protocol_handler.c **** }
 586              		.loc 1 118 54 view .LVU163
 587 0020 28B9     		cbnz	r0, .L48
 588              	.L43:
 119:src/protocol_handler.c **** 
 589              		.loc 1 119 1 view .LVU164
 590 0022 2046     		mov	r0, r4
 591 0024 46B0     		add	sp, sp, #280
 592              	.LCFI15:
 593              		.cfi_remember_state
 594              		.cfi_def_cfa_offset 8
 595              		@ sp needed
 596 0026 10BD     		pop	{r4, pc}
 597              	.L45:
 598              	.LCFI16:
 599              		.cfi_restore_state
 117:src/protocol_handler.c ****     return (comm_send(buf, len, 100) == COMM_OK) ? 0 : -1;
 600              		.loc 1 117 72 view .LVU165
 601 0028 4FF0FF34 		mov	r4, #-1
 602 002c F9E7     		b	.L43
 603              	.L48:
 118:src/protocol_handler.c **** }
 604              		.loc 1 118 54 view .LVU166
 605 002e 4FF0FF34 		mov	r4, #-1
 606 0032 F6E7     		b	.L43
 607              		.cfi_endproc
 608              	.LFE4:
 610              		.section	.text.handle_can_send_frame,"ax",%progbits
ARM GAS  C:\WINDOWS\cciIg2oO.s 			page 22


 611              		.align	1
 612              		.syntax unified
 613              		.thumb
 614              		.thumb_func
 616              	handle_can_send_frame:
 617              	.LVL53:
 618              	.LFB18:
 383:src/protocol_handler.c ****     if (data_len < sizeof(can_send_frame_t)) {
 619              		.loc 1 383 1 is_stmt 1 view -0
 620              		.cfi_startproc
 621              		@ args = 0, pretend = 0, frame = 8
 622              		@ frame_needed = 0, uses_anonymous_args = 0
 383:src/protocol_handler.c ****     if (data_len < sizeof(can_send_frame_t)) {
 623              		.loc 1 383 1 is_stmt 0 view .LVU168
 624 0000 10B5     		push	{r4, lr}
 625              	.LCFI17:
 626              		.cfi_def_cfa_offset 8
 627              		.cfi_offset 4, -8
 628              		.cfi_offset 14, -4
 629 0002 86B0     		sub	sp, sp, #24
 630              	.LCFI18:
 631              		.cfi_def_cfa_offset 32
 384:src/protocol_handler.c ****         proto_send_simple(MSG_NACK);
 632              		.loc 1 384 5 is_stmt 1 view .LVU169
 384:src/protocol_handler.c ****         proto_send_simple(MSG_NACK);
 633              		.loc 1 384 8 is_stmt 0 view .LVU170
 634 0004 0E29     		cmp	r1, #14
 635 0006 1DD9     		bls	.L55
 389:src/protocol_handler.c ****     can_status_t ret = can_send_frame(req->channel, req->can_id,
 636              		.loc 1 389 5 is_stmt 1 view .LVU171
 637              	.LVL54:
 390:src/protocol_handler.c ****                                        req->flags & 0x01,      /* IDE */
 638              		.loc 1 390 5 view .LVU172
 391:src/protocol_handler.c ****                                        (req->flags >> 1) & 0x01, /* RTR */
 639              		.loc 1 391 43 is_stmt 0 view .LVU173
 640 0008 4279     		ldrb	r2, [r0, #5]	@ zero_extendqisi2
 393:src/protocol_handler.c **** 
 641              		.loc 1 393 53 view .LVU174
 642 000a 0346     		mov	r3, r0
 390:src/protocol_handler.c ****                                        req->flags & 0x01,      /* IDE */
 643              		.loc 1 390 24 view .LVU175
 644 000c 53F8071B 		ldr	r1, [r3], #7	@ unaligned
 645              	.LVL55:
 390:src/protocol_handler.c ****                                        req->flags & 0x01,      /* IDE */
 646              		.loc 1 390 24 view .LVU176
 647 0010 6424     		movs	r4, #100
 648 0012 0294     		str	r4, [sp, #8]
 649 0014 0193     		str	r3, [sp, #4]
 650 0016 0379     		ldrb	r3, [r0, #4]	@ zero_extendqisi2
 651 0018 0093     		str	r3, [sp]
 652 001a C2F34003 		ubfx	r3, r2, #1, #1
 653 001e 02F00102 		and	r2, r2, #1
 654 0022 8079     		ldrb	r0, [r0, #6]	@ zero_extendqisi2
 655              	.LVL56:
 390:src/protocol_handler.c ****                                        req->flags & 0x01,      /* IDE */
 656              		.loc 1 390 24 view .LVU177
 657 0024 FFF7FEFF 		bl	can_send_frame
ARM GAS  C:\WINDOWS\cciIg2oO.s 			page 23


 658              	.LVL57:
 395:src/protocol_handler.c ****     ack.ack_cmd    = CMD_CAN_SEND_FRAME;
 659              		.loc 1 395 5 is_stmt 1 view .LVU178
 396:src/protocol_handler.c ****     ack.error_code = (ret == CAN_OK) ? ERR_NONE : ERR_CAN_TX_FAILED;
 660              		.loc 1 396 5 view .LVU179
 396:src/protocol_handler.c ****     ack.error_code = (ret == CAN_OK) ? ERR_NONE : ERR_CAN_TX_FAILED;
 661              		.loc 1 396 20 is_stmt 0 view .LVU180
 662 0028 3423     		movs	r3, #52
 663 002a 8DF81430 		strb	r3, [sp, #20]
 397:src/protocol_handler.c ****     proto_send_data(MSG_ACK, (const uint8_t *)&ack, sizeof(ack));
 664              		.loc 1 397 5 is_stmt 1 view .LVU181
 397:src/protocol_handler.c ****     proto_send_data(MSG_ACK, (const uint8_t *)&ack, sizeof(ack));
 665              		.loc 1 397 20 is_stmt 0 view .LVU182
 666 002e 68B9     		cbnz	r0, .L53
 667 0030 0023     		movs	r3, #0
 668              	.L52:
 397:src/protocol_handler.c ****     proto_send_data(MSG_ACK, (const uint8_t *)&ack, sizeof(ack));
 669              		.loc 1 397 20 discriminator 4 view .LVU183
 670 0032 8DF81530 		strb	r3, [sp, #21]
 398:src/protocol_handler.c **** }
 671              		.loc 1 398 5 is_stmt 1 discriminator 4 view .LVU184
 672 0036 0222     		movs	r2, #2
 673 0038 05A9     		add	r1, sp, #20
 674 003a A020     		movs	r0, #160
 675              	.LVL58:
 398:src/protocol_handler.c **** }
 676              		.loc 1 398 5 is_stmt 0 discriminator 4 view .LVU185
 677 003c FFF7FEFF 		bl	proto_send_data
 678              	.LVL59:
 679              	.L49:
 399:src/protocol_handler.c **** 
 680              		.loc 1 399 1 view .LVU186
 681 0040 06B0     		add	sp, sp, #24
 682              	.LCFI19:
 683              		.cfi_remember_state
 684              		.cfi_def_cfa_offset 8
 685              		@ sp needed
 686 0042 10BD     		pop	{r4, pc}
 687              	.LVL60:
 688              	.L55:
 689              	.LCFI20:
 690              		.cfi_restore_state
 385:src/protocol_handler.c ****         return;
 691              		.loc 1 385 9 is_stmt 1 view .LVU187
 692 0044 A120     		movs	r0, #161
 693              	.LVL61:
 385:src/protocol_handler.c ****         return;
 694              		.loc 1 385 9 is_stmt 0 view .LVU188
 695 0046 FFF7FEFF 		bl	proto_send_simple
 696              	.LVL62:
 386:src/protocol_handler.c ****     }
 697              		.loc 1 386 9 is_stmt 1 view .LVU189
 698 004a F9E7     		b	.L49
 699              	.LVL63:
 700              	.L53:
 397:src/protocol_handler.c ****     proto_send_data(MSG_ACK, (const uint8_t *)&ack, sizeof(ack));
 701              		.loc 1 397 20 is_stmt 0 view .LVU190
ARM GAS  C:\WINDOWS\cciIg2oO.s 			page 24


 702 004c 1223     		movs	r3, #18
 703 004e F0E7     		b	.L52
 704              		.cfi_endproc
 705              	.LFE18:
 707              		.section	.text.handle_adc_stop_sample,"ax",%progbits
 708              		.align	1
 709              		.syntax unified
 710              		.thumb
 711              		.thumb_func
 713              	handle_adc_stop_sample:
 714              	.LVL64:
 715              	.LFB17:
 370:src/protocol_handler.c ****     (void)data;
 716              		.loc 1 370 1 is_stmt 1 view -0
 717              		.cfi_startproc
 718              		@ args = 0, pretend = 0, frame = 8
 719              		@ frame_needed = 0, uses_anonymous_args = 0
 370:src/protocol_handler.c ****     (void)data;
 720              		.loc 1 370 1 is_stmt 0 view .LVU192
 721 0000 00B5     		push	{lr}
 722              	.LCFI21:
 723              		.cfi_def_cfa_offset 4
 724              		.cfi_offset 14, -4
 725 0002 83B0     		sub	sp, sp, #12
 726              	.LCFI22:
 727              		.cfi_def_cfa_offset 16
 371:src/protocol_handler.c ****     (void)data_len;
 728              		.loc 1 371 5 is_stmt 1 view .LVU193
 372:src/protocol_handler.c **** 
 729              		.loc 1 372 5 view .LVU194
 374:src/protocol_handler.c **** 
 730              		.loc 1 374 5 view .LVU195
 374:src/protocol_handler.c **** 
 731              		.loc 1 374 24 is_stmt 0 view .LVU196
 732 0004 FFF7FEFF 		bl	adc_stop_sampling
 733              	.LVL65:
 376:src/protocol_handler.c ****     ack.ack_cmd    = CMD_ADC_STOP_SAMPLE;
 734              		.loc 1 376 5 is_stmt 1 view .LVU197
 377:src/protocol_handler.c ****     ack.error_code = (ret == ADC_OK) ? ERR_NONE : ERR_HARDWARE_FAULT;
 735              		.loc 1 377 5 view .LVU198
 377:src/protocol_handler.c ****     ack.error_code = (ret == ADC_OK) ? ERR_NONE : ERR_HARDWARE_FAULT;
 736              		.loc 1 377 20 is_stmt 0 view .LVU199
 737 0008 3323     		movs	r3, #51
 738 000a 8DF80430 		strb	r3, [sp, #4]
 378:src/protocol_handler.c ****     proto_send_data(MSG_ACK, (const uint8_t *)&ack, sizeof(ack));
 739              		.loc 1 378 5 is_stmt 1 view .LVU200
 378:src/protocol_handler.c ****     proto_send_data(MSG_ACK, (const uint8_t *)&ack, sizeof(ack));
 740              		.loc 1 378 20 is_stmt 0 view .LVU201
 741 000e 50B9     		cbnz	r0, .L58
 742 0010 0023     		movs	r3, #0
 743              	.L57:
 378:src/protocol_handler.c ****     proto_send_data(MSG_ACK, (const uint8_t *)&ack, sizeof(ack));
 744              		.loc 1 378 20 discriminator 4 view .LVU202
 745 0012 8DF80530 		strb	r3, [sp, #5]
 379:src/protocol_handler.c **** }
 746              		.loc 1 379 5 is_stmt 1 discriminator 4 view .LVU203
 747 0016 0222     		movs	r2, #2
ARM GAS  C:\WINDOWS\cciIg2oO.s 			page 25


 748 0018 01A9     		add	r1, sp, #4
 749 001a A020     		movs	r0, #160
 750              	.LVL66:
 379:src/protocol_handler.c **** }
 751              		.loc 1 379 5 is_stmt 0 discriminator 4 view .LVU204
 752 001c FFF7FEFF 		bl	proto_send_data
 753              	.LVL67:
 380:src/protocol_handler.c **** 
 754              		.loc 1 380 1 discriminator 4 view .LVU205
 755 0020 03B0     		add	sp, sp, #12
 756              	.LCFI23:
 757              		.cfi_remember_state
 758              		.cfi_def_cfa_offset 4
 759              		@ sp needed
 760 0022 5DF804FB 		ldr	pc, [sp], #4
 761              	.LVL68:
 762              	.L58:
 763              	.LCFI24:
 764              		.cfi_restore_state
 378:src/protocol_handler.c ****     proto_send_data(MSG_ACK, (const uint8_t *)&ack, sizeof(ack));
 765              		.loc 1 378 20 view .LVU206
 766 0026 FF23     		movs	r3, #255
 767 0028 F3E7     		b	.L57
 768              		.cfi_endproc
 769              	.LFE17:
 771              		.section	.text.handle_adc_start_sample,"ax",%progbits
 772              		.align	1
 773              		.syntax unified
 774              		.thumb
 775              		.thumb_func
 777              	handle_adc_start_sample:
 778              	.LVL69:
 779              	.LFB16:
 349:src/protocol_handler.c ****     (void)data;
 780              		.loc 1 349 1 is_stmt 1 view -0
 781              		.cfi_startproc
 782              		@ args = 0, pretend = 0, frame = 8
 783              		@ frame_needed = 0, uses_anonymous_args = 0
 349:src/protocol_handler.c ****     (void)data;
 784              		.loc 1 349 1 is_stmt 0 view .LVU208
 785 0000 00B5     		push	{lr}
 786              	.LCFI25:
 787              		.cfi_def_cfa_offset 4
 788              		.cfi_offset 14, -4
 789 0002 83B0     		sub	sp, sp, #12
 790              	.LCFI26:
 791              		.cfi_def_cfa_offset 16
 350:src/protocol_handler.c ****     (void)data_len;
 792              		.loc 1 350 5 is_stmt 1 view .LVU209
 351:src/protocol_handler.c **** 
 793              		.loc 1 351 5 view .LVU210
 353:src/protocol_handler.c ****         ack_resp_t ack;
 794              		.loc 1 353 5 view .LVU211
 353:src/protocol_handler.c ****         ack_resp_t ack;
 795              		.loc 1 353 10 is_stmt 0 view .LVU212
 796 0004 FFF7FEFF 		bl	adc_is_available
 797              	.LVL70:
ARM GAS  C:\WINDOWS\cciIg2oO.s 			page 26


 353:src/protocol_handler.c ****         ack_resp_t ack;
 798              		.loc 1 353 8 view .LVU213
 799 0008 80B1     		cbz	r0, .L66
 361:src/protocol_handler.c **** 
 800              		.loc 1 361 5 is_stmt 1 view .LVU214
 361:src/protocol_handler.c **** 
 801              		.loc 1 361 24 is_stmt 0 view .LVU215
 802 000a FFF7FEFF 		bl	adc_start_sampling
 803              	.LVL71:
 363:src/protocol_handler.c ****     ack.ack_cmd    = CMD_ADC_START_SAMPLE;
 804              		.loc 1 363 5 is_stmt 1 view .LVU216
 364:src/protocol_handler.c ****     ack.error_code = (ret == ADC_OK) ? ERR_NONE : ERR_HARDWARE_FAULT;
 805              		.loc 1 364 5 view .LVU217
 364:src/protocol_handler.c ****     ack.error_code = (ret == ADC_OK) ? ERR_NONE : ERR_HARDWARE_FAULT;
 806              		.loc 1 364 20 is_stmt 0 view .LVU218
 807 000e 3223     		movs	r3, #50
 808 0010 8DF80430 		strb	r3, [sp, #4]
 365:src/protocol_handler.c ****     proto_send_data(MSG_ACK, (const uint8_t *)&ack, sizeof(ack));
 809              		.loc 1 365 5 is_stmt 1 view .LVU219
 365:src/protocol_handler.c ****     proto_send_data(MSG_ACK, (const uint8_t *)&ack, sizeof(ack));
 810              		.loc 1 365 20 is_stmt 0 view .LVU220
 811 0014 B0B9     		cbnz	r0, .L64
 812 0016 0023     		movs	r3, #0
 813              	.L63:
 365:src/protocol_handler.c ****     proto_send_data(MSG_ACK, (const uint8_t *)&ack, sizeof(ack));
 814              		.loc 1 365 20 discriminator 4 view .LVU221
 815 0018 8DF80530 		strb	r3, [sp, #5]
 366:src/protocol_handler.c **** }
 816              		.loc 1 366 5 is_stmt 1 discriminator 4 view .LVU222
 817 001c 0222     		movs	r2, #2
 818 001e 01A9     		add	r1, sp, #4
 819 0020 A020     		movs	r0, #160
 820              	.LVL72:
 366:src/protocol_handler.c **** }
 821              		.loc 1 366 5 is_stmt 0 discriminator 4 view .LVU223
 822 0022 FFF7FEFF 		bl	proto_send_data
 823              	.LVL73:
 824              	.L60:
 367:src/protocol_handler.c **** 
 825              		.loc 1 367 1 view .LVU224
 826 0026 03B0     		add	sp, sp, #12
 827              	.LCFI27:
 828              		.cfi_remember_state
 829              		.cfi_def_cfa_offset 4
 830              		@ sp needed
 831 0028 5DF804FB 		ldr	pc, [sp], #4
 832              	.L66:
 833              	.LCFI28:
 834              		.cfi_restore_state
 835              	.LBB6:
 354:src/protocol_handler.c ****         ack.ack_cmd    = CMD_ADC_START_SAMPLE;
 836              		.loc 1 354 9 is_stmt 1 view .LVU225
 355:src/protocol_handler.c ****         ack.error_code = ERR_ADC_NOT_AVAILABLE;
 837              		.loc 1 355 9 view .LVU226
 355:src/protocol_handler.c ****         ack.error_code = ERR_ADC_NOT_AVAILABLE;
 838              		.loc 1 355 24 is_stmt 0 view .LVU227
 839 002c 3223     		movs	r3, #50
ARM GAS  C:\WINDOWS\cciIg2oO.s 			page 27


 840 002e 8DF80030 		strb	r3, [sp]
 356:src/protocol_handler.c ****         proto_send_data(MSG_ACK, (const uint8_t *)&ack, sizeof(ack));
 841              		.loc 1 356 9 is_stmt 1 view .LVU228
 356:src/protocol_handler.c ****         proto_send_data(MSG_ACK, (const uint8_t *)&ack, sizeof(ack));
 842              		.loc 1 356 24 is_stmt 0 view .LVU229
 843 0032 2023     		movs	r3, #32
 844 0034 8DF80130 		strb	r3, [sp, #1]
 357:src/protocol_handler.c ****         return;
 845              		.loc 1 357 9 is_stmt 1 view .LVU230
 846 0038 0222     		movs	r2, #2
 847 003a 6946     		mov	r1, sp
 848 003c A020     		movs	r0, #160
 849 003e FFF7FEFF 		bl	proto_send_data
 850              	.LVL74:
 358:src/protocol_handler.c ****     }
 851              		.loc 1 358 9 view .LVU231
 852 0042 F0E7     		b	.L60
 853              	.LVL75:
 854              	.L64:
 358:src/protocol_handler.c ****     }
 855              		.loc 1 358 9 is_stmt 0 view .LVU232
 856              	.LBE6:
 365:src/protocol_handler.c ****     proto_send_data(MSG_ACK, (const uint8_t *)&ack, sizeof(ack));
 857              		.loc 1 365 20 view .LVU233
 858 0044 FF23     		movs	r3, #255
 859 0046 E7E7     		b	.L63
 860              		.cfi_endproc
 861              	.LFE16:
 863              		.section	.text.handle_can_stop_listen,"ax",%progbits
 864              		.align	1
 865              		.syntax unified
 866              		.thumb
 867              		.thumb_func
 869              	handle_can_stop_listen:
 870              	.LVL76:
 871              	.LFB15:
 336:src/protocol_handler.c ****     (void)data;
 872              		.loc 1 336 1 is_stmt 1 view -0
 873              		.cfi_startproc
 874              		@ args = 0, pretend = 0, frame = 8
 875              		@ frame_needed = 0, uses_anonymous_args = 0
 336:src/protocol_handler.c ****     (void)data;
 876              		.loc 1 336 1 is_stmt 0 view .LVU235
 877 0000 00B5     		push	{lr}
 878              	.LCFI29:
 879              		.cfi_def_cfa_offset 4
 880              		.cfi_offset 14, -4
 881 0002 83B0     		sub	sp, sp, #12
 882              	.LCFI30:
 883              		.cfi_def_cfa_offset 16
 337:src/protocol_handler.c ****     (void)data_len;
 884              		.loc 1 337 5 is_stmt 1 view .LVU236
 338:src/protocol_handler.c **** 
 885              		.loc 1 338 5 view .LVU237
 340:src/protocol_handler.c **** 
 886              		.loc 1 340 5 view .LVU238
 340:src/protocol_handler.c **** 
ARM GAS  C:\WINDOWS\cciIg2oO.s 			page 28


 887              		.loc 1 340 24 is_stmt 0 view .LVU239
 888 0004 0020     		movs	r0, #0
 889              	.LVL77:
 340:src/protocol_handler.c **** 
 890              		.loc 1 340 24 view .LVU240
 891 0006 FFF7FEFF 		bl	can_stop_listen
 892              	.LVL78:
 342:src/protocol_handler.c ****     ack.ack_cmd    = CMD_CAN_STOP_LISTEN;
 893              		.loc 1 342 5 is_stmt 1 view .LVU241
 343:src/protocol_handler.c ****     ack.error_code = (ret == CAN_OK) ? ERR_NONE : ERR_HARDWARE_FAULT;
 894              		.loc 1 343 5 view .LVU242
 343:src/protocol_handler.c ****     ack.error_code = (ret == CAN_OK) ? ERR_NONE : ERR_HARDWARE_FAULT;
 895              		.loc 1 343 20 is_stmt 0 view .LVU243
 896 000a 3123     		movs	r3, #49
 897 000c 8DF80430 		strb	r3, [sp, #4]
 344:src/protocol_handler.c ****     proto_send_data(MSG_ACK, (const uint8_t *)&ack, sizeof(ack));
 898              		.loc 1 344 5 is_stmt 1 view .LVU244
 344:src/protocol_handler.c ****     proto_send_data(MSG_ACK, (const uint8_t *)&ack, sizeof(ack));
 899              		.loc 1 344 20 is_stmt 0 view .LVU245
 900 0010 50B9     		cbnz	r0, .L69
 901 0012 0023     		movs	r3, #0
 902              	.L68:
 344:src/protocol_handler.c ****     proto_send_data(MSG_ACK, (const uint8_t *)&ack, sizeof(ack));
 903              		.loc 1 344 20 discriminator 4 view .LVU246
 904 0014 8DF80530 		strb	r3, [sp, #5]
 345:src/protocol_handler.c **** }
 905              		.loc 1 345 5 is_stmt 1 discriminator 4 view .LVU247
 906 0018 0222     		movs	r2, #2
 907 001a 01A9     		add	r1, sp, #4
 908 001c A020     		movs	r0, #160
 909              	.LVL79:
 345:src/protocol_handler.c **** }
 910              		.loc 1 345 5 is_stmt 0 discriminator 4 view .LVU248
 911 001e FFF7FEFF 		bl	proto_send_data
 912              	.LVL80:
 346:src/protocol_handler.c **** 
 913              		.loc 1 346 1 discriminator 4 view .LVU249
 914 0022 03B0     		add	sp, sp, #12
 915              	.LCFI31:
 916              		.cfi_remember_state
 917              		.cfi_def_cfa_offset 4
 918              		@ sp needed
 919 0024 5DF804FB 		ldr	pc, [sp], #4
 920              	.LVL81:
 921              	.L69:
 922              	.LCFI32:
 923              		.cfi_restore_state
 344:src/protocol_handler.c ****     proto_send_data(MSG_ACK, (const uint8_t *)&ack, sizeof(ack));
 924              		.loc 1 344 20 view .LVU250
 925 0028 FF23     		movs	r3, #255
 926 002a F3E7     		b	.L68
 927              		.cfi_endproc
 928              	.LFE15:
 930              		.section	.text.handle_can_start_listen,"ax",%progbits
 931              		.align	1
 932              		.syntax unified
 933              		.thumb
ARM GAS  C:\WINDOWS\cciIg2oO.s 			page 29


 934              		.thumb_func
 936              	handle_can_start_listen:
 937              	.LVL82:
 938              	.LFB14:
 323:src/protocol_handler.c ****     (void)data;
 939              		.loc 1 323 1 is_stmt 1 view -0
 940              		.cfi_startproc
 941              		@ args = 0, pretend = 0, frame = 8
 942              		@ frame_needed = 0, uses_anonymous_args = 0
 323:src/protocol_handler.c ****     (void)data;
 943              		.loc 1 323 1 is_stmt 0 view .LVU252
 944 0000 00B5     		push	{lr}
 945              	.LCFI33:
 946              		.cfi_def_cfa_offset 4
 947              		.cfi_offset 14, -4
 948 0002 83B0     		sub	sp, sp, #12
 949              	.LCFI34:
 950              		.cfi_def_cfa_offset 16
 324:src/protocol_handler.c ****     (void)data_len;
 951              		.loc 1 324 5 is_stmt 1 view .LVU253
 325:src/protocol_handler.c **** 
 952              		.loc 1 325 5 view .LVU254
 327:src/protocol_handler.c **** 
 953              		.loc 1 327 5 view .LVU255
 327:src/protocol_handler.c **** 
 954              		.loc 1 327 24 is_stmt 0 view .LVU256
 955 0004 0020     		movs	r0, #0
 956              	.LVL83:
 327:src/protocol_handler.c **** 
 957              		.loc 1 327 24 view .LVU257
 958 0006 FFF7FEFF 		bl	can_start_listen
 959              	.LVL84:
 329:src/protocol_handler.c ****     ack.ack_cmd    = CMD_CAN_START_LISTEN;
 960              		.loc 1 329 5 is_stmt 1 view .LVU258
 330:src/protocol_handler.c ****     ack.error_code = (ret == CAN_OK) ? ERR_NONE : ERR_HARDWARE_FAULT;
 961              		.loc 1 330 5 view .LVU259
 330:src/protocol_handler.c ****     ack.error_code = (ret == CAN_OK) ? ERR_NONE : ERR_HARDWARE_FAULT;
 962              		.loc 1 330 20 is_stmt 0 view .LVU260
 963 000a 3023     		movs	r3, #48
 964 000c 8DF80430 		strb	r3, [sp, #4]
 331:src/protocol_handler.c ****     proto_send_data(MSG_ACK, (const uint8_t *)&ack, sizeof(ack));
 965              		.loc 1 331 5 is_stmt 1 view .LVU261
 331:src/protocol_handler.c ****     proto_send_data(MSG_ACK, (const uint8_t *)&ack, sizeof(ack));
 966              		.loc 1 331 20 is_stmt 0 view .LVU262
 967 0010 50B9     		cbnz	r0, .L73
 968 0012 0023     		movs	r3, #0
 969              	.L72:
 331:src/protocol_handler.c ****     proto_send_data(MSG_ACK, (const uint8_t *)&ack, sizeof(ack));
 970              		.loc 1 331 20 discriminator 4 view .LVU263
 971 0014 8DF80530 		strb	r3, [sp, #5]
 332:src/protocol_handler.c **** }
 972              		.loc 1 332 5 is_stmt 1 discriminator 4 view .LVU264
 973 0018 0222     		movs	r2, #2
 974 001a 01A9     		add	r1, sp, #4
 975 001c A020     		movs	r0, #160
 976              	.LVL85:
 332:src/protocol_handler.c **** }
ARM GAS  C:\WINDOWS\cciIg2oO.s 			page 30


 977              		.loc 1 332 5 is_stmt 0 discriminator 4 view .LVU265
 978 001e FFF7FEFF 		bl	proto_send_data
 979              	.LVL86:
 333:src/protocol_handler.c **** 
 980              		.loc 1 333 1 discriminator 4 view .LVU266
 981 0022 03B0     		add	sp, sp, #12
 982              	.LCFI35:
 983              		.cfi_remember_state
 984              		.cfi_def_cfa_offset 4
 985              		@ sp needed
 986 0024 5DF804FB 		ldr	pc, [sp], #4
 987              	.LVL87:
 988              	.L73:
 989              	.LCFI36:
 990              		.cfi_restore_state
 331:src/protocol_handler.c ****     proto_send_data(MSG_ACK, (const uint8_t *)&ack, sizeof(ack));
 991              		.loc 1 331 20 view .LVU267
 992 0028 FF23     		movs	r3, #255
 993 002a F3E7     		b	.L72
 994              		.cfi_endproc
 995              	.LFE14:
 997              		.section	.text.handle_comm_set_interface,"ax",%progbits
 998              		.align	1
 999              		.syntax unified
 1000              		.thumb
 1001              		.thumb_func
 1003              	handle_comm_set_interface:
 1004              	.LVL88:
 1005              	.LFB13:
 304:src/protocol_handler.c ****     if (data_len < sizeof(comm_set_interface_t)) {
 1006              		.loc 1 304 1 is_stmt 1 view -0
 1007              		.cfi_startproc
 1008              		@ args = 0, pretend = 0, frame = 8
 1009              		@ frame_needed = 0, uses_anonymous_args = 0
 304:src/protocol_handler.c ****     if (data_len < sizeof(comm_set_interface_t)) {
 1010              		.loc 1 304 1 is_stmt 0 view .LVU269
 1011 0000 00B5     		push	{lr}
 1012              	.LCFI37:
 1013              		.cfi_def_cfa_offset 4
 1014              		.cfi_offset 14, -4
 1015 0002 83B0     		sub	sp, sp, #12
 1016              	.LCFI38:
 1017              		.cfi_def_cfa_offset 16
 305:src/protocol_handler.c ****         proto_send_simple(MSG_NACK);
 1018              		.loc 1 305 5 is_stmt 1 view .LVU270
 305:src/protocol_handler.c ****         proto_send_simple(MSG_NACK);
 1019              		.loc 1 305 8 is_stmt 0 view .LVU271
 1020 0004 B9B1     		cbz	r1, .L81
 310:src/protocol_handler.c ****     comm_interface_t target = (req->interface == COMM_IF_USB_CDC) ?
 1021              		.loc 1 310 5 is_stmt 1 view .LVU272
 1022              	.LVL89:
 311:src/protocol_handler.c ****                             COMM_IF_USB_CDC : COMM_IF_USART;
 1023              		.loc 1 311 5 view .LVU273
 311:src/protocol_handler.c ****                             COMM_IF_USB_CDC : COMM_IF_USART;
 1024              		.loc 1 311 35 is_stmt 0 view .LVU274
 1025 0006 0078     		ldrb	r0, [r0]	@ zero_extendqisi2
 1026              	.LVL90:
ARM GAS  C:\WINDOWS\cciIg2oO.s 			page 31


 314:src/protocol_handler.c **** 
 1027              		.loc 1 314 5 is_stmt 1 view .LVU275
 314:src/protocol_handler.c **** 
 1028              		.loc 1 314 25 is_stmt 0 view .LVU276
 1029 0008 4FF4E131 		mov	r1, #115200
 1030              	.LVL91:
 314:src/protocol_handler.c **** 
 1031              		.loc 1 314 25 view .LVU277
 1032 000c 0128     		cmp	r0, #1
 1033 000e 14BF     		ite	ne
 1034 0010 0020     		movne	r0, #0
 1035              	.LVL92:
 314:src/protocol_handler.c **** 
 1036              		.loc 1 314 25 view .LVU278
 1037 0012 0120     		moveq	r0, #1
 1038 0014 FFF7FEFF 		bl	comm_switch_interface
 1039              	.LVL93:
 316:src/protocol_handler.c ****     ack.ack_cmd    = CMD_COMM_SET_INTERFACE;
 1040              		.loc 1 316 5 is_stmt 1 view .LVU279
 317:src/protocol_handler.c ****     ack.error_code = (ret == COMM_OK) ? ERR_NONE : ERR_COMM_TX_FAILED;
 1041              		.loc 1 317 5 view .LVU280
 317:src/protocol_handler.c ****     ack.error_code = (ret == COMM_OK) ? ERR_NONE : ERR_COMM_TX_FAILED;
 1042              		.loc 1 317 20 is_stmt 0 view .LVU281
 1043 0018 2823     		movs	r3, #40
 1044 001a 8DF80430 		strb	r3, [sp, #4]
 318:src/protocol_handler.c ****     proto_send_data(MSG_ACK, (const uint8_t *)&ack, sizeof(ack));
 1045              		.loc 1 318 5 is_stmt 1 view .LVU282
 318:src/protocol_handler.c ****     proto_send_data(MSG_ACK, (const uint8_t *)&ack, sizeof(ack));
 1046              		.loc 1 318 20 is_stmt 0 view .LVU283
 1047 001e 70B9     		cbnz	r0, .L79
 1048 0020 0023     		movs	r3, #0
 1049              	.L78:
 318:src/protocol_handler.c ****     proto_send_data(MSG_ACK, (const uint8_t *)&ack, sizeof(ack));
 1050              		.loc 1 318 20 discriminator 4 view .LVU284
 1051 0022 8DF80530 		strb	r3, [sp, #5]
 319:src/protocol_handler.c **** }
 1052              		.loc 1 319 5 is_stmt 1 discriminator 4 view .LVU285
 1053 0026 0222     		movs	r2, #2
 1054 0028 01A9     		add	r1, sp, #4
 1055 002a A020     		movs	r0, #160
 1056              	.LVL94:
 319:src/protocol_handler.c **** }
 1057              		.loc 1 319 5 is_stmt 0 discriminator 4 view .LVU286
 1058 002c FFF7FEFF 		bl	proto_send_data
 1059              	.LVL95:
 1060              	.L75:
 320:src/protocol_handler.c **** 
 1061              		.loc 1 320 1 view .LVU287
 1062 0030 03B0     		add	sp, sp, #12
 1063              	.LCFI39:
 1064              		.cfi_remember_state
 1065              		.cfi_def_cfa_offset 4
 1066              		@ sp needed
 1067 0032 5DF804FB 		ldr	pc, [sp], #4
 1068              	.LVL96:
 1069              	.L81:
 1070              	.LCFI40:
ARM GAS  C:\WINDOWS\cciIg2oO.s 			page 32


 1071              		.cfi_restore_state
 306:src/protocol_handler.c ****         return;
 1072              		.loc 1 306 9 is_stmt 1 view .LVU288
 1073 0036 A120     		movs	r0, #161
 1074              	.LVL97:
 306:src/protocol_handler.c ****         return;
 1075              		.loc 1 306 9 is_stmt 0 view .LVU289
 1076 0038 FFF7FEFF 		bl	proto_send_simple
 1077              	.LVL98:
 307:src/protocol_handler.c ****     }
 1078              		.loc 1 307 9 is_stmt 1 view .LVU290
 1079 003c F8E7     		b	.L75
 1080              	.LVL99:
 1081              	.L79:
 318:src/protocol_handler.c ****     proto_send_data(MSG_ACK, (const uint8_t *)&ack, sizeof(ack));
 1082              		.loc 1 318 20 is_stmt 0 view .LVU291
 1083 003e 3023     		movs	r3, #48
 1084 0040 EFE7     		b	.L78
 1085              		.cfi_endproc
 1086              	.LFE13:
 1088              		.section	.text.handle_adc_set_sampling,"ax",%progbits
 1089              		.align	1
 1090              		.syntax unified
 1091              		.thumb
 1092              		.thumb_func
 1094              	handle_adc_set_sampling:
 1095              	.LVL100:
 1096              	.LFB12:
 273:src/protocol_handler.c ****     if (data_len < sizeof(adc_set_sampling_t)) {
 1097              		.loc 1 273 1 is_stmt 1 view -0
 1098              		.cfi_startproc
 1099              		@ args = 0, pretend = 0, frame = 16
 1100              		@ frame_needed = 0, uses_anonymous_args = 0
 273:src/protocol_handler.c ****     if (data_len < sizeof(adc_set_sampling_t)) {
 1101              		.loc 1 273 1 is_stmt 0 view .LVU293
 1102 0000 10B5     		push	{r4, lr}
 1103              	.LCFI41:
 1104              		.cfi_def_cfa_offset 8
 1105              		.cfi_offset 4, -8
 1106              		.cfi_offset 14, -4
 1107 0002 84B0     		sub	sp, sp, #16
 1108              	.LCFI42:
 1109              		.cfi_def_cfa_offset 24
 274:src/protocol_handler.c ****         proto_send_simple(MSG_NACK);
 1110              		.loc 1 274 5 is_stmt 1 view .LVU294
 274:src/protocol_handler.c ****         proto_send_simple(MSG_NACK);
 1111              		.loc 1 274 8 is_stmt 0 view .LVU295
 1112 0004 0529     		cmp	r1, #5
 1113 0006 1FD9     		bls	.L90
 1114 0008 0446     		mov	r4, r0
 279:src/protocol_handler.c **** 
 1115              		.loc 1 279 5 is_stmt 1 view .LVU296
 1116              	.LVL101:
 281:src/protocol_handler.c ****         ack_resp_t ack;
 1117              		.loc 1 281 5 view .LVU297
 281:src/protocol_handler.c ****         ack_resp_t ack;
 1118              		.loc 1 281 10 is_stmt 0 view .LVU298
ARM GAS  C:\WINDOWS\cciIg2oO.s 			page 33


 1119 000a FFF7FEFF 		bl	adc_is_available
 1120              	.LVL102:
 281:src/protocol_handler.c ****         ack_resp_t ack;
 1121              		.loc 1 281 8 view .LVU299
 1122 000e F8B1     		cbz	r0, .L91
 289:src/protocol_handler.c ****     config.sample_rate = req->sample_rate;
 1123              		.loc 1 289 5 is_stmt 1 view .LVU300
 290:src/protocol_handler.c ****     config.resolution  = req->resolution;
 1124              		.loc 1 290 5 view .LVU301
 290:src/protocol_handler.c ****     config.resolution  = req->resolution;
 1125              		.loc 1 290 29 is_stmt 0 view .LVU302
 1126 0010 2368     		ldr	r3, [r4]	@ unaligned
 290:src/protocol_handler.c ****     config.resolution  = req->resolution;
 1127              		.loc 1 290 24 view .LVU303
 1128 0012 0293     		str	r3, [sp, #8]
 291:src/protocol_handler.c ****     config.channel     = req->channel;
 1129              		.loc 1 291 5 is_stmt 1 view .LVU304
 291:src/protocol_handler.c ****     config.channel     = req->channel;
 1130              		.loc 1 291 29 is_stmt 0 view .LVU305
 1131 0014 2379     		ldrb	r3, [r4, #4]	@ zero_extendqisi2
 291:src/protocol_handler.c ****     config.channel     = req->channel;
 1132              		.loc 1 291 24 view .LVU306
 1133 0016 8DF80C30 		strb	r3, [sp, #12]
 292:src/protocol_handler.c ****     config.source      = ADC_SOURCE_ADC;
 1134              		.loc 1 292 5 is_stmt 1 view .LVU307
 292:src/protocol_handler.c ****     config.source      = ADC_SOURCE_ADC;
 1135              		.loc 1 292 29 is_stmt 0 view .LVU308
 1136 001a 6379     		ldrb	r3, [r4, #5]	@ zero_extendqisi2
 292:src/protocol_handler.c ****     config.source      = ADC_SOURCE_ADC;
 1137              		.loc 1 292 24 view .LVU309
 1138 001c 8DF80D30 		strb	r3, [sp, #13]
 293:src/protocol_handler.c **** 
 1139              		.loc 1 293 5 is_stmt 1 view .LVU310
 293:src/protocol_handler.c **** 
 1140              		.loc 1 293 24 is_stmt 0 view .LVU311
 1141 0020 0023     		movs	r3, #0
 1142 0022 8DF80E30 		strb	r3, [sp, #14]
 295:src/protocol_handler.c **** 
 1143              		.loc 1 295 5 is_stmt 1 view .LVU312
 295:src/protocol_handler.c **** 
 1144              		.loc 1 295 24 is_stmt 0 view .LVU313
 1145 0026 02A8     		add	r0, sp, #8
 1146 0028 FFF7FEFF 		bl	adc_init
 1147              	.LVL103:
 297:src/protocol_handler.c ****     ack.ack_cmd    = CMD_ADC_SET_SAMPLING;
 1148              		.loc 1 297 5 is_stmt 1 view .LVU314
 298:src/protocol_handler.c ****     ack.error_code = (ret == ADC_OK) ? ERR_NONE : ERR_INVALID_PARAM;
 1149              		.loc 1 298 5 view .LVU315
 298:src/protocol_handler.c ****     ack.error_code = (ret == ADC_OK) ? ERR_NONE : ERR_INVALID_PARAM;
 1150              		.loc 1 298 20 is_stmt 0 view .LVU316
 1151 002c 2023     		movs	r3, #32
 1152 002e 8DF80430 		strb	r3, [sp, #4]
 299:src/protocol_handler.c ****     proto_send_data(MSG_ACK, (const uint8_t *)&ack, sizeof(ack));
 1153              		.loc 1 299 5 is_stmt 1 view .LVU317
 299:src/protocol_handler.c ****     proto_send_data(MSG_ACK, (const uint8_t *)&ack, sizeof(ack));
 1154              		.loc 1 299 20 is_stmt 0 view .LVU318
 1155 0032 C0B9     		cbnz	r0, .L88
ARM GAS  C:\WINDOWS\cciIg2oO.s 			page 34


 1156 0034 0023     		movs	r3, #0
 1157              	.L86:
 299:src/protocol_handler.c ****     proto_send_data(MSG_ACK, (const uint8_t *)&ack, sizeof(ack));
 1158              		.loc 1 299 20 discriminator 4 view .LVU319
 1159 0036 8DF80530 		strb	r3, [sp, #5]
 300:src/protocol_handler.c **** }
 1160              		.loc 1 300 5 is_stmt 1 discriminator 4 view .LVU320
 1161 003a 0222     		movs	r2, #2
 1162 003c 01A9     		add	r1, sp, #4
 1163 003e A020     		movs	r0, #160
 1164              	.LVL104:
 300:src/protocol_handler.c **** }
 1165              		.loc 1 300 5 is_stmt 0 discriminator 4 view .LVU321
 1166 0040 FFF7FEFF 		bl	proto_send_data
 1167              	.LVL105:
 1168              	.L82:
 301:src/protocol_handler.c **** 
 1169              		.loc 1 301 1 view .LVU322
 1170 0044 04B0     		add	sp, sp, #16
 1171              	.LCFI43:
 1172              		.cfi_remember_state
 1173              		.cfi_def_cfa_offset 8
 1174              		@ sp needed
 1175 0046 10BD     		pop	{r4, pc}
 1176              	.LVL106:
 1177              	.L90:
 1178              	.LCFI44:
 1179              		.cfi_restore_state
 275:src/protocol_handler.c ****         return;
 1180              		.loc 1 275 9 is_stmt 1 view .LVU323
 1181 0048 A120     		movs	r0, #161
 1182              	.LVL107:
 275:src/protocol_handler.c ****         return;
 1183              		.loc 1 275 9 is_stmt 0 view .LVU324
 1184 004a FFF7FEFF 		bl	proto_send_simple
 1185              	.LVL108:
 276:src/protocol_handler.c ****     }
 1186              		.loc 1 276 9 is_stmt 1 view .LVU325
 1187 004e F9E7     		b	.L82
 1188              	.LVL109:
 1189              	.L91:
 1190              	.LBB7:
 282:src/protocol_handler.c ****         ack.ack_cmd    = CMD_ADC_SET_SAMPLING;
 1191              		.loc 1 282 9 view .LVU326
 283:src/protocol_handler.c ****         ack.error_code = ERR_ADC_NOT_AVAILABLE;
 1192              		.loc 1 283 9 view .LVU327
 283:src/protocol_handler.c ****         ack.error_code = ERR_ADC_NOT_AVAILABLE;
 1193              		.loc 1 283 24 is_stmt 0 view .LVU328
 1194 0050 2023     		movs	r3, #32
 1195 0052 8DF80030 		strb	r3, [sp]
 284:src/protocol_handler.c ****         proto_send_data(MSG_ACK, (const uint8_t *)&ack, sizeof(ack));
 1196              		.loc 1 284 9 is_stmt 1 view .LVU329
 284:src/protocol_handler.c ****         proto_send_data(MSG_ACK, (const uint8_t *)&ack, sizeof(ack));
 1197              		.loc 1 284 24 is_stmt 0 view .LVU330
 1198 0056 8DF80130 		strb	r3, [sp, #1]
 285:src/protocol_handler.c ****         return;
 1199              		.loc 1 285 9 is_stmt 1 view .LVU331
ARM GAS  C:\WINDOWS\cciIg2oO.s 			page 35


 1200 005a 0222     		movs	r2, #2
 1201 005c 6946     		mov	r1, sp
 1202 005e A020     		movs	r0, #160
 1203 0060 FFF7FEFF 		bl	proto_send_data
 1204              	.LVL110:
 286:src/protocol_handler.c ****     }
 1205              		.loc 1 286 9 view .LVU332
 1206 0064 EEE7     		b	.L82
 1207              	.LVL111:
 1208              	.L88:
 286:src/protocol_handler.c ****     }
 1209              		.loc 1 286 9 is_stmt 0 view .LVU333
 1210              	.LBE7:
 299:src/protocol_handler.c ****     proto_send_data(MSG_ACK, (const uint8_t *)&ack, sizeof(ack));
 1211              		.loc 1 299 20 view .LVU334
 1212 0066 0223     		movs	r3, #2
 1213 0068 E5E7     		b	.L86
 1214              		.cfi_endproc
 1215              	.LFE12:
 1217              		.section	.text.handle_can_set_filter,"ax",%progbits
 1218              		.align	1
 1219              		.syntax unified
 1220              		.thumb
 1221              		.thumb_func
 1223              	handle_can_set_filter:
 1224              	.LVL112:
 1225              	.LFB11:
 254:src/protocol_handler.c ****     if (data_len < sizeof(can_set_filter_t)) {
 1226              		.loc 1 254 1 is_stmt 1 view -0
 1227              		.cfi_startproc
 1228              		@ args = 0, pretend = 0, frame = 8
 1229              		@ frame_needed = 0, uses_anonymous_args = 0
 254:src/protocol_handler.c ****     if (data_len < sizeof(can_set_filter_t)) {
 1230              		.loc 1 254 1 is_stmt 0 view .LVU336
 1231 0000 00B5     		push	{lr}
 1232              	.LCFI45:
 1233              		.cfi_def_cfa_offset 4
 1234              		.cfi_offset 14, -4
 1235 0002 87B0     		sub	sp, sp, #28
 1236              	.LCFI46:
 1237              		.cfi_def_cfa_offset 32
 255:src/protocol_handler.c ****         proto_send_simple(MSG_NACK);
 1238              		.loc 1 255 5 is_stmt 1 view .LVU337
 255:src/protocol_handler.c ****         proto_send_simple(MSG_NACK);
 1239              		.loc 1 255 8 is_stmt 0 view .LVU338
 1240 0004 1329     		cmp	r1, #19
 1241 0006 1CD9     		bls	.L98
 260:src/protocol_handler.c ****     can_status_t ret = can_set_filter(req->channel, req->filter_index,
 1242              		.loc 1 260 5 is_stmt 1 view .LVU339
 1243              	.LVL113:
 261:src/protocol_handler.c ****                                        req->filter_mode, req->filter_scale,
 1244              		.loc 1 261 5 view .LVU340
 261:src/protocol_handler.c ****                                        req->filter_mode, req->filter_scale,
 1245              		.loc 1 261 24 is_stmt 0 view .LVU341
 1246 0008 0369     		ldr	r3, [r0, #16]	@ unaligned
 1247 000a 0393     		str	r3, [sp, #12]
 1248 000c C368     		ldr	r3, [r0, #12]	@ unaligned
ARM GAS  C:\WINDOWS\cciIg2oO.s 			page 36


 1249 000e 0293     		str	r3, [sp, #8]
 1250 0010 8368     		ldr	r3, [r0, #8]	@ unaligned
 1251 0012 0193     		str	r3, [sp, #4]
 1252 0014 4368     		ldr	r3, [r0, #4]	@ unaligned
 1253 0016 0093     		str	r3, [sp]
 1254 0018 C378     		ldrb	r3, [r0, #3]	@ zero_extendqisi2
 1255 001a 8278     		ldrb	r2, [r0, #2]	@ zero_extendqisi2
 1256 001c 4178     		ldrb	r1, [r0, #1]	@ zero_extendqisi2
 1257              	.LVL114:
 261:src/protocol_handler.c ****                                        req->filter_mode, req->filter_scale,
 1258              		.loc 1 261 24 view .LVU342
 1259 001e 0078     		ldrb	r0, [r0]	@ zero_extendqisi2
 1260              	.LVL115:
 261:src/protocol_handler.c ****                                        req->filter_mode, req->filter_scale,
 1261              		.loc 1 261 24 view .LVU343
 1262 0020 FFF7FEFF 		bl	can_set_filter
 1263              	.LVL116:
 266:src/protocol_handler.c ****     ack.ack_cmd    = CMD_CAN_SET_FILTER;
 1264              		.loc 1 266 5 is_stmt 1 view .LVU344
 267:src/protocol_handler.c ****     ack.error_code = (ret == CAN_OK) ? ERR_NONE : ERR_INVALID_PARAM;
 1265              		.loc 1 267 5 view .LVU345
 267:src/protocol_handler.c ****     ack.error_code = (ret == CAN_OK) ? ERR_NONE : ERR_INVALID_PARAM;
 1266              		.loc 1 267 20 is_stmt 0 view .LVU346
 1267 0024 1223     		movs	r3, #18
 1268 0026 8DF81430 		strb	r3, [sp, #20]
 268:src/protocol_handler.c ****     proto_send_data(MSG_ACK, (const uint8_t *)&ack, sizeof(ack));
 1269              		.loc 1 268 5 is_stmt 1 view .LVU347
 268:src/protocol_handler.c ****     proto_send_data(MSG_ACK, (const uint8_t *)&ack, sizeof(ack));
 1270              		.loc 1 268 20 is_stmt 0 view .LVU348
 1271 002a 70B9     		cbnz	r0, .L96
 1272 002c 0023     		movs	r3, #0
 1273              	.L95:
 268:src/protocol_handler.c ****     proto_send_data(MSG_ACK, (const uint8_t *)&ack, sizeof(ack));
 1274              		.loc 1 268 20 discriminator 4 view .LVU349
 1275 002e 8DF81530 		strb	r3, [sp, #21]
 269:src/protocol_handler.c **** }
 1276              		.loc 1 269 5 is_stmt 1 discriminator 4 view .LVU350
 1277 0032 0222     		movs	r2, #2
 1278 0034 05A9     		add	r1, sp, #20
 1279 0036 A020     		movs	r0, #160
 1280              	.LVL117:
 269:src/protocol_handler.c **** }
 1281              		.loc 1 269 5 is_stmt 0 discriminator 4 view .LVU351
 1282 0038 FFF7FEFF 		bl	proto_send_data
 1283              	.LVL118:
 1284              	.L92:
 270:src/protocol_handler.c **** 
 1285              		.loc 1 270 1 view .LVU352
 1286 003c 07B0     		add	sp, sp, #28
 1287              	.LCFI47:
 1288              		.cfi_remember_state
 1289              		.cfi_def_cfa_offset 4
 1290              		@ sp needed
 1291 003e 5DF804FB 		ldr	pc, [sp], #4
 1292              	.LVL119:
 1293              	.L98:
 1294              	.LCFI48:
ARM GAS  C:\WINDOWS\cciIg2oO.s 			page 37


 1295              		.cfi_restore_state
 256:src/protocol_handler.c ****         return;
 1296              		.loc 1 256 9 is_stmt 1 view .LVU353
 1297 0042 A120     		movs	r0, #161
 1298              	.LVL120:
 256:src/protocol_handler.c ****         return;
 1299              		.loc 1 256 9 is_stmt 0 view .LVU354
 1300 0044 FFF7FEFF 		bl	proto_send_simple
 1301              	.LVL121:
 257:src/protocol_handler.c ****     }
 1302              		.loc 1 257 9 is_stmt 1 view .LVU355
 1303 0048 F8E7     		b	.L92
 1304              	.LVL122:
 1305              	.L96:
 268:src/protocol_handler.c ****     proto_send_data(MSG_ACK, (const uint8_t *)&ack, sizeof(ack));
 1306              		.loc 1 268 20 is_stmt 0 view .LVU356
 1307 004a 0223     		movs	r3, #2
 1308 004c EFE7     		b	.L95
 1309              		.cfi_endproc
 1310              	.LFE11:
 1312              		.section	.text.handle_can_set_mode,"ax",%progbits
 1313              		.align	1
 1314              		.syntax unified
 1315              		.thumb
 1316              		.thumb_func
 1318              	handle_can_set_mode:
 1319              	.LVL123:
 1320              	.LFB10:
 238:src/protocol_handler.c ****     if (data_len < sizeof(can_set_mode_t)) {
 1321              		.loc 1 238 1 is_stmt 1 view -0
 1322              		.cfi_startproc
 1323              		@ args = 0, pretend = 0, frame = 8
 1324              		@ frame_needed = 0, uses_anonymous_args = 0
 238:src/protocol_handler.c ****     if (data_len < sizeof(can_set_mode_t)) {
 1325              		.loc 1 238 1 is_stmt 0 view .LVU358
 1326 0000 00B5     		push	{lr}
 1327              	.LCFI49:
 1328              		.cfi_def_cfa_offset 4
 1329              		.cfi_offset 14, -4
 1330 0002 83B0     		sub	sp, sp, #12
 1331              	.LCFI50:
 1332              		.cfi_def_cfa_offset 16
 239:src/protocol_handler.c ****         proto_send_simple(MSG_NACK);
 1333              		.loc 1 239 5 is_stmt 1 view .LVU359
 239:src/protocol_handler.c ****         proto_send_simple(MSG_NACK);
 1334              		.loc 1 239 8 is_stmt 0 view .LVU360
 1335 0004 0129     		cmp	r1, #1
 1336 0006 12D9     		bls	.L105
 244:src/protocol_handler.c ****     can_status_t ret = can_set_mode(req->channel, req->mode);
 1337              		.loc 1 244 5 is_stmt 1 view .LVU361
 1338              	.LVL124:
 245:src/protocol_handler.c **** 
 1339              		.loc 1 245 5 view .LVU362
 245:src/protocol_handler.c **** 
 1340              		.loc 1 245 24 is_stmt 0 view .LVU363
 1341 0008 4178     		ldrb	r1, [r0, #1]	@ zero_extendqisi2
 1342              	.LVL125:
ARM GAS  C:\WINDOWS\cciIg2oO.s 			page 38


 245:src/protocol_handler.c **** 
 1343              		.loc 1 245 24 view .LVU364
 1344 000a 0078     		ldrb	r0, [r0]	@ zero_extendqisi2
 1345              	.LVL126:
 245:src/protocol_handler.c **** 
 1346              		.loc 1 245 24 view .LVU365
 1347 000c FFF7FEFF 		bl	can_set_mode
 1348              	.LVL127:
 247:src/protocol_handler.c ****     ack.ack_cmd    = CMD_CAN_SET_MODE;
 1349              		.loc 1 247 5 is_stmt 1 view .LVU366
 248:src/protocol_handler.c ****     ack.error_code = (ret == CAN_OK) ? ERR_NONE : ERR_INVALID_PARAM;
 1350              		.loc 1 248 5 view .LVU367
 248:src/protocol_handler.c ****     ack.error_code = (ret == CAN_OK) ? ERR_NONE : ERR_INVALID_PARAM;
 1351              		.loc 1 248 20 is_stmt 0 view .LVU368
 1352 0010 1123     		movs	r3, #17
 1353 0012 8DF80430 		strb	r3, [sp, #4]
 249:src/protocol_handler.c ****     proto_send_data(MSG_ACK, (const uint8_t *)&ack, sizeof(ack));
 1354              		.loc 1 249 5 is_stmt 1 view .LVU369
 249:src/protocol_handler.c ****     proto_send_data(MSG_ACK, (const uint8_t *)&ack, sizeof(ack));
 1355              		.loc 1 249 20 is_stmt 0 view .LVU370
 1356 0016 70B9     		cbnz	r0, .L103
 1357 0018 0023     		movs	r3, #0
 1358              	.L102:
 249:src/protocol_handler.c ****     proto_send_data(MSG_ACK, (const uint8_t *)&ack, sizeof(ack));
 1359              		.loc 1 249 20 discriminator 4 view .LVU371
 1360 001a 8DF80530 		strb	r3, [sp, #5]
 250:src/protocol_handler.c **** }
 1361              		.loc 1 250 5 is_stmt 1 discriminator 4 view .LVU372
 1362 001e 0222     		movs	r2, #2
 1363 0020 01A9     		add	r1, sp, #4
 1364 0022 A020     		movs	r0, #160
 1365              	.LVL128:
 250:src/protocol_handler.c **** }
 1366              		.loc 1 250 5 is_stmt 0 discriminator 4 view .LVU373
 1367 0024 FFF7FEFF 		bl	proto_send_data
 1368              	.LVL129:
 1369              	.L99:
 251:src/protocol_handler.c **** 
 1370              		.loc 1 251 1 view .LVU374
 1371 0028 03B0     		add	sp, sp, #12
 1372              	.LCFI51:
 1373              		.cfi_remember_state
 1374              		.cfi_def_cfa_offset 4
 1375              		@ sp needed
 1376 002a 5DF804FB 		ldr	pc, [sp], #4
 1377              	.LVL130:
 1378              	.L105:
 1379              	.LCFI52:
 1380              		.cfi_restore_state
 240:src/protocol_handler.c ****         return;
 1381              		.loc 1 240 9 is_stmt 1 view .LVU375
 1382 002e A120     		movs	r0, #161
 1383              	.LVL131:
 240:src/protocol_handler.c ****         return;
 1384              		.loc 1 240 9 is_stmt 0 view .LVU376
 1385 0030 FFF7FEFF 		bl	proto_send_simple
 1386              	.LVL132:
ARM GAS  C:\WINDOWS\cciIg2oO.s 			page 39


 241:src/protocol_handler.c ****     }
 1387              		.loc 1 241 9 is_stmt 1 view .LVU377
 1388 0034 F8E7     		b	.L99
 1389              	.LVL133:
 1390              	.L103:
 249:src/protocol_handler.c ****     proto_send_data(MSG_ACK, (const uint8_t *)&ack, sizeof(ack));
 1391              		.loc 1 249 20 is_stmt 0 view .LVU378
 1392 0036 0223     		movs	r3, #2
 1393 0038 EFE7     		b	.L102
 1394              		.cfi_endproc
 1395              	.LFE10:
 1397              		.section	.text.handle_can_set_baudrate,"ax",%progbits
 1398              		.align	1
 1399              		.syntax unified
 1400              		.thumb
 1401              		.thumb_func
 1403              	handle_can_set_baudrate:
 1404              	.LVL134:
 1405              	.LFB9:
 222:src/protocol_handler.c ****     if (data_len < sizeof(can_set_baudrate_t)) {
 1406              		.loc 1 222 1 is_stmt 1 view -0
 1407              		.cfi_startproc
 1408              		@ args = 0, pretend = 0, frame = 8
 1409              		@ frame_needed = 0, uses_anonymous_args = 0
 222:src/protocol_handler.c ****     if (data_len < sizeof(can_set_baudrate_t)) {
 1410              		.loc 1 222 1 is_stmt 0 view .LVU380
 1411 0000 00B5     		push	{lr}
 1412              	.LCFI53:
 1413              		.cfi_def_cfa_offset 4
 1414              		.cfi_offset 14, -4
 1415 0002 83B0     		sub	sp, sp, #12
 1416              	.LCFI54:
 1417              		.cfi_def_cfa_offset 16
 223:src/protocol_handler.c ****         proto_send_simple(MSG_NACK);
 1418              		.loc 1 223 5 is_stmt 1 view .LVU381
 223:src/protocol_handler.c ****         proto_send_simple(MSG_NACK);
 1419              		.loc 1 223 8 is_stmt 0 view .LVU382
 1420 0004 0429     		cmp	r1, #4
 1421 0006 12D9     		bls	.L112
 228:src/protocol_handler.c ****     can_status_t ret = can_set_baudrate(req->channel, req->baudrate);
 1422              		.loc 1 228 5 is_stmt 1 view .LVU383
 1423              	.LVL135:
 229:src/protocol_handler.c **** 
 1424              		.loc 1 229 5 view .LVU384
 229:src/protocol_handler.c **** 
 1425              		.loc 1 229 24 is_stmt 0 view .LVU385
 1426 0008 0168     		ldr	r1, [r0]	@ unaligned
 1427              	.LVL136:
 229:src/protocol_handler.c **** 
 1428              		.loc 1 229 24 view .LVU386
 1429 000a 0079     		ldrb	r0, [r0, #4]	@ zero_extendqisi2
 1430              	.LVL137:
 229:src/protocol_handler.c **** 
 1431              		.loc 1 229 24 view .LVU387
 1432 000c FFF7FEFF 		bl	can_set_baudrate
 1433              	.LVL138:
 231:src/protocol_handler.c ****     ack.ack_cmd    = CMD_CAN_SET_BAUDRATE;
ARM GAS  C:\WINDOWS\cciIg2oO.s 			page 40


 1434              		.loc 1 231 5 is_stmt 1 view .LVU388
 232:src/protocol_handler.c ****     ack.error_code = (ret == CAN_OK) ? ERR_NONE : ERR_INVALID_PARAM;
 1435              		.loc 1 232 5 view .LVU389
 232:src/protocol_handler.c ****     ack.error_code = (ret == CAN_OK) ? ERR_NONE : ERR_INVALID_PARAM;
 1436              		.loc 1 232 20 is_stmt 0 view .LVU390
 1437 0010 1023     		movs	r3, #16
 1438 0012 8DF80430 		strb	r3, [sp, #4]
 233:src/protocol_handler.c ****     proto_send_data(MSG_ACK, (const uint8_t *)&ack, sizeof(ack));
 1439              		.loc 1 233 5 is_stmt 1 view .LVU391
 233:src/protocol_handler.c ****     proto_send_data(MSG_ACK, (const uint8_t *)&ack, sizeof(ack));
 1440              		.loc 1 233 20 is_stmt 0 view .LVU392
 1441 0016 70B9     		cbnz	r0, .L110
 1442 0018 0023     		movs	r3, #0
 1443              	.L109:
 233:src/protocol_handler.c ****     proto_send_data(MSG_ACK, (const uint8_t *)&ack, sizeof(ack));
 1444              		.loc 1 233 20 discriminator 4 view .LVU393
 1445 001a 8DF80530 		strb	r3, [sp, #5]
 234:src/protocol_handler.c **** }
 1446              		.loc 1 234 5 is_stmt 1 discriminator 4 view .LVU394
 1447 001e 0222     		movs	r2, #2
 1448 0020 01A9     		add	r1, sp, #4
 1449 0022 A020     		movs	r0, #160
 1450              	.LVL139:
 234:src/protocol_handler.c **** }
 1451              		.loc 1 234 5 is_stmt 0 discriminator 4 view .LVU395
 1452 0024 FFF7FEFF 		bl	proto_send_data
 1453              	.LVL140:
 1454              	.L106:
 235:src/protocol_handler.c **** 
 1455              		.loc 1 235 1 view .LVU396
 1456 0028 03B0     		add	sp, sp, #12
 1457              	.LCFI55:
 1458              		.cfi_remember_state
 1459              		.cfi_def_cfa_offset 4
 1460              		@ sp needed
 1461 002a 5DF804FB 		ldr	pc, [sp], #4
 1462              	.LVL141:
 1463              	.L112:
 1464              	.LCFI56:
 1465              		.cfi_restore_state
 224:src/protocol_handler.c ****         return;
 1466              		.loc 1 224 9 is_stmt 1 view .LVU397
 1467 002e A120     		movs	r0, #161
 1468              	.LVL142:
 224:src/protocol_handler.c ****         return;
 1469              		.loc 1 224 9 is_stmt 0 view .LVU398
 1470 0030 FFF7FEFF 		bl	proto_send_simple
 1471              	.LVL143:
 225:src/protocol_handler.c ****     }
 1472              		.loc 1 225 9 is_stmt 1 view .LVU399
 1473 0034 F8E7     		b	.L106
 1474              	.LVL144:
 1475              	.L110:
 233:src/protocol_handler.c ****     proto_send_data(MSG_ACK, (const uint8_t *)&ack, sizeof(ack));
 1476              		.loc 1 233 20 is_stmt 0 view .LVU400
 1477 0036 0223     		movs	r3, #2
 1478 0038 EFE7     		b	.L109
ARM GAS  C:\WINDOWS\cciIg2oO.s 			page 41


 1479              		.cfi_endproc
 1480              	.LFE9:
 1482              		.section	.text.handle_get_adc_status,"ax",%progbits
 1483              		.align	1
 1484              		.syntax unified
 1485              		.thumb
 1486              		.thumb_func
 1488              	handle_get_adc_status:
 1489              	.LVL145:
 1490              	.LFB8:
 195:src/protocol_handler.c ****     (void)data;
 1491              		.loc 1 195 1 is_stmt 1 view -0
 1492              		.cfi_startproc
 1493              		@ args = 0, pretend = 0, frame = 16
 1494              		@ frame_needed = 0, uses_anonymous_args = 0
 195:src/protocol_handler.c ****     (void)data;
 1495              		.loc 1 195 1 is_stmt 0 view .LVU402
 1496 0000 10B5     		push	{r4, lr}
 1497              	.LCFI57:
 1498              		.cfi_def_cfa_offset 8
 1499              		.cfi_offset 4, -8
 1500              		.cfi_offset 14, -4
 1501 0002 84B0     		sub	sp, sp, #16
 1502              	.LCFI58:
 1503              		.cfi_def_cfa_offset 24
 196:src/protocol_handler.c ****     (void)data_len;
 1504              		.loc 1 196 5 is_stmt 1 view .LVU403
 197:src/protocol_handler.c **** 
 1505              		.loc 1 197 5 view .LVU404
 199:src/protocol_handler.c ****     uint32_t sample_rate = 0;
 1506              		.loc 1 199 5 view .LVU405
 199:src/protocol_handler.c ****     uint32_t sample_rate = 0;
 1507              		.loc 1 199 13 is_stmt 0 view .LVU406
 1508 0004 0023     		movs	r3, #0
 1509 0006 8DF80F30 		strb	r3, [sp, #15]
 200:src/protocol_handler.c ****     uint8_t resolution = 0;
 1510              		.loc 1 200 5 is_stmt 1 view .LVU407
 200:src/protocol_handler.c ****     uint8_t resolution = 0;
 1511              		.loc 1 200 14 is_stmt 0 view .LVU408
 1512 000a 0293     		str	r3, [sp, #8]
 201:src/protocol_handler.c ****     uint8_t available = adc_is_available();
 1513              		.loc 1 201 5 is_stmt 1 view .LVU409
 201:src/protocol_handler.c ****     uint8_t available = adc_is_available();
 1514              		.loc 1 201 13 is_stmt 0 view .LVU410
 1515 000c 8DF80730 		strb	r3, [sp, #7]
 202:src/protocol_handler.c **** 
 1516              		.loc 1 202 5 is_stmt 1 view .LVU411
 202:src/protocol_handler.c **** 
 1517              		.loc 1 202 25 is_stmt 0 view .LVU412
 1518 0010 FFF7FEFF 		bl	adc_is_available
 1519              	.LVL146:
 204:src/protocol_handler.c ****         adc_get_status(&is_sampling, &sample_rate, &resolution);
 1520              		.loc 1 204 5 is_stmt 1 view .LVU413
 204:src/protocol_handler.c ****         adc_get_status(&is_sampling, &sample_rate, &resolution);
 1521              		.loc 1 204 8 is_stmt 0 view .LVU414
 1522 0014 0446     		mov	r4, r0
 1523 0016 F0B9     		cbnz	r0, .L116
ARM GAS  C:\WINDOWS\cciIg2oO.s 			page 42


 1524              	.LVL147:
 1525              	.L114:
 209:src/protocol_handler.c ****     resp[0] = available;
 1526              		.loc 1 209 5 is_stmt 1 view .LVU415
 210:src/protocol_handler.c ****     resp[1] = is_sampling;
 1527              		.loc 1 210 5 view .LVU416
 210:src/protocol_handler.c ****     resp[1] = is_sampling;
 1528              		.loc 1 210 13 is_stmt 0 view .LVU417
 1529 0018 8DF80040 		strb	r4, [sp]
 211:src/protocol_handler.c ****     resp[2] = resolution;
 1530              		.loc 1 211 5 is_stmt 1 view .LVU418
 211:src/protocol_handler.c ****     resp[2] = resolution;
 1531              		.loc 1 211 13 is_stmt 0 view .LVU419
 1532 001c 9DF80F30 		ldrb	r3, [sp, #15]	@ zero_extendqisi2
 1533 0020 8DF80130 		strb	r3, [sp, #1]
 212:src/protocol_handler.c ****     resp[3] = (uint8_t)(sample_rate & 0xFF);
 1534              		.loc 1 212 5 is_stmt 1 view .LVU420
 212:src/protocol_handler.c ****     resp[3] = (uint8_t)(sample_rate & 0xFF);
 1535              		.loc 1 212 13 is_stmt 0 view .LVU421
 1536 0024 9DF80730 		ldrb	r3, [sp, #7]	@ zero_extendqisi2
 1537 0028 8DF80230 		strb	r3, [sp, #2]
 213:src/protocol_handler.c ****     resp[4] = (uint8_t)((sample_rate >> 8) & 0xFF);
 1538              		.loc 1 213 5 is_stmt 1 view .LVU422
 213:src/protocol_handler.c ****     resp[4] = (uint8_t)((sample_rate >> 8) & 0xFF);
 1539              		.loc 1 213 15 is_stmt 0 view .LVU423
 1540 002c 029B     		ldr	r3, [sp, #8]
 213:src/protocol_handler.c ****     resp[4] = (uint8_t)((sample_rate >> 8) & 0xFF);
 1541              		.loc 1 213 13 view .LVU424
 1542 002e 8DF80330 		strb	r3, [sp, #3]
 214:src/protocol_handler.c ****     resp[5] = (uint8_t)((sample_rate >> 16) & 0xFF);
 1543              		.loc 1 214 5 is_stmt 1 view .LVU425
 214:src/protocol_handler.c ****     resp[5] = (uint8_t)((sample_rate >> 16) & 0xFF);
 1544              		.loc 1 214 15 is_stmt 0 view .LVU426
 1545 0032 C3F30722 		ubfx	r2, r3, #8, #8
 214:src/protocol_handler.c ****     resp[5] = (uint8_t)((sample_rate >> 16) & 0xFF);
 1546              		.loc 1 214 13 view .LVU427
 1547 0036 8DF80420 		strb	r2, [sp, #4]
 215:src/protocol_handler.c ****     resp[6] = (uint8_t)((sample_rate >> 24) & 0xFF);
 1548              		.loc 1 215 5 is_stmt 1 view .LVU428
 215:src/protocol_handler.c ****     resp[6] = (uint8_t)((sample_rate >> 24) & 0xFF);
 1549              		.loc 1 215 15 is_stmt 0 view .LVU429
 1550 003a C3F30742 		ubfx	r2, r3, #16, #8
 215:src/protocol_handler.c ****     resp[6] = (uint8_t)((sample_rate >> 24) & 0xFF);
 1551              		.loc 1 215 13 view .LVU430
 1552 003e 8DF80520 		strb	r2, [sp, #5]
 216:src/protocol_handler.c **** 
 1553              		.loc 1 216 5 is_stmt 1 view .LVU431
 216:src/protocol_handler.c **** 
 1554              		.loc 1 216 15 is_stmt 0 view .LVU432
 1555 0042 1B0E     		lsrs	r3, r3, #24
 216:src/protocol_handler.c **** 
 1556              		.loc 1 216 13 view .LVU433
 1557 0044 8DF80630 		strb	r3, [sp, #6]
 218:src/protocol_handler.c **** }
 1558              		.loc 1 218 5 is_stmt 1 view .LVU434
 1559 0048 0722     		movs	r2, #7
 1560 004a 6946     		mov	r1, sp
ARM GAS  C:\WINDOWS\cciIg2oO.s 			page 43


 1561 004c 8420     		movs	r0, #132
 1562 004e FFF7FEFF 		bl	proto_send_data
 1563              	.LVL148:
 219:src/protocol_handler.c **** 
 1564              		.loc 1 219 1 is_stmt 0 view .LVU435
 1565 0052 04B0     		add	sp, sp, #16
 1566              	.LCFI59:
 1567              		.cfi_remember_state
 1568              		.cfi_def_cfa_offset 8
 1569              		@ sp needed
 1570 0054 10BD     		pop	{r4, pc}
 1571              	.LVL149:
 1572              	.L116:
 1573              	.LCFI60:
 1574              		.cfi_restore_state
 205:src/protocol_handler.c ****     }
 1575              		.loc 1 205 9 is_stmt 1 view .LVU436
 1576 0056 0DF10702 		add	r2, sp, #7
 1577 005a 02A9     		add	r1, sp, #8
 1578 005c 0DF10F00 		add	r0, sp, #15
 1579              	.LVL150:
 205:src/protocol_handler.c ****     }
 1580              		.loc 1 205 9 is_stmt 0 view .LVU437
 1581 0060 FFF7FEFF 		bl	adc_get_status
 1582              	.LVL151:
 1583 0064 D8E7     		b	.L114
 1584              		.cfi_endproc
 1585              	.LFE8:
 1587              		.section	.text.handle_get_status,"ax",%progbits
 1588              		.align	1
 1589              		.syntax unified
 1590              		.thumb
 1591              		.thumb_func
 1593              	handle_get_status:
 1594              	.LVL152:
 1595              	.LFB7:
 166:src/protocol_handler.c ****     (void)data;
 1596              		.loc 1 166 1 is_stmt 1 view -0
 1597              		.cfi_startproc
 1598              		@ args = 0, pretend = 0, frame = 24
 1599              		@ frame_needed = 0, uses_anonymous_args = 0
 166:src/protocol_handler.c ****     (void)data;
 1600              		.loc 1 166 1 is_stmt 0 view .LVU439
 1601 0000 30B5     		push	{r4, r5, lr}
 1602              	.LCFI61:
 1603              		.cfi_def_cfa_offset 12
 1604              		.cfi_offset 4, -12
 1605              		.cfi_offset 5, -8
 1606              		.cfi_offset 14, -4
 1607 0002 87B0     		sub	sp, sp, #28
 1608              	.LCFI62:
 1609              		.cfi_def_cfa_offset 40
 167:src/protocol_handler.c ****     (void)data_len;
 1610              		.loc 1 167 5 is_stmt 1 view .LVU440
 168:src/protocol_handler.c **** 
 1611              		.loc 1 168 5 view .LVU441
 170:src/protocol_handler.c ****     memset(&resp, 0, sizeof(resp));
ARM GAS  C:\WINDOWS\cciIg2oO.s 			page 44


 1612              		.loc 1 170 5 view .LVU442
 171:src/protocol_handler.c ****     resp.can_listening  = can_is_initialized(0) ? 1 : 0;
 1613              		.loc 1 171 5 view .LVU443
 1614 0004 0025     		movs	r5, #0
 1615 0006 0495     		str	r5, [sp, #16]
 1616 0008 0595     		str	r5, [sp, #20]
 172:src/protocol_handler.c ****     resp.comm_interface = (uint8_t)comm_get_current_interface();
 1617              		.loc 1 172 5 view .LVU444
 172:src/protocol_handler.c ****     resp.comm_interface = (uint8_t)comm_get_current_interface();
 1618              		.loc 1 172 27 is_stmt 0 view .LVU445
 1619 000a 2846     		mov	r0, r5
 1620              	.LVL153:
 172:src/protocol_handler.c ****     resp.comm_interface = (uint8_t)comm_get_current_interface();
 1621              		.loc 1 172 27 view .LVU446
 1622 000c FFF7FEFF 		bl	can_is_initialized
 1623              	.LVL154:
 172:src/protocol_handler.c ****     resp.comm_interface = (uint8_t)comm_get_current_interface();
 1624              		.loc 1 172 53 view .LVU447
 1625 0010 401B     		subs	r0, r0, r5
 1626 0012 18BF     		it	ne
 1627 0014 0120     		movne	r0, #1
 172:src/protocol_handler.c ****     resp.comm_interface = (uint8_t)comm_get_current_interface();
 1628              		.loc 1 172 25 view .LVU448
 1629 0016 8DF81000 		strb	r0, [sp, #16]
 173:src/protocol_handler.c ****     resp.uptime_ms      = device_get_uptime_ms();
 1630              		.loc 1 173 5 is_stmt 1 view .LVU449
 173:src/protocol_handler.c ****     resp.uptime_ms      = device_get_uptime_ms();
 1631              		.loc 1 173 36 is_stmt 0 view .LVU450
 1632 001a FFF7FEFF 		bl	comm_get_current_interface
 1633              	.LVL155:
 173:src/protocol_handler.c ****     resp.uptime_ms      = device_get_uptime_ms();
 1634              		.loc 1 173 25 view .LVU451
 1635 001e 8DF81200 		strb	r0, [sp, #18]
 174:src/protocol_handler.c **** 
 1636              		.loc 1 174 5 is_stmt 1 view .LVU452
 174:src/protocol_handler.c **** 
 1637              		.loc 1 174 27 is_stmt 0 view .LVU453
 1638 0022 FFF7FEFF 		bl	device_get_uptime_ms
 1639              	.LVL156:
 174:src/protocol_handler.c **** 
 1640              		.loc 1 174 25 view .LVU454
 1641 0026 0590     		str	r0, [sp, #20]
 177:src/protocol_handler.c ****     for (uint8_t ch = 0; ch < can_get_channel_count(); ch++) {
 1642              		.loc 1 177 5 is_stmt 1 view .LVU455
 1643              	.LVL157:
 178:src/protocol_handler.c ****         if (can_is_initialized(ch)) ch_active |= (1U << ch);
 1644              		.loc 1 178 5 view .LVU456
 1645              	.LBB8:
 178:src/protocol_handler.c ****         if (can_is_initialized(ch)) ch_active |= (1U << ch);
 1646              		.loc 1 178 10 view .LVU457
 178:src/protocol_handler.c ****         if (can_is_initialized(ch)) ch_active |= (1U << ch);
 1647              		.loc 1 178 18 is_stmt 0 view .LVU458
 1648 0028 2C46     		mov	r4, r5
 178:src/protocol_handler.c ****         if (can_is_initialized(ch)) ch_active |= (1U << ch);
 1649              		.loc 1 178 5 view .LVU459
 1650 002a 01E0     		b	.L118
 1651              	.LVL158:
ARM GAS  C:\WINDOWS\cciIg2oO.s 			page 45


 1652              	.L119:
 178:src/protocol_handler.c ****         if (can_is_initialized(ch)) ch_active |= (1U << ch);
 1653              		.loc 1 178 56 is_stmt 1 discriminator 2 view .LVU460
 178:src/protocol_handler.c ****         if (can_is_initialized(ch)) ch_active |= (1U << ch);
 1654              		.loc 1 178 58 is_stmt 0 discriminator 2 view .LVU461
 1655 002c 0134     		adds	r4, r4, #1
 1656              	.LVL159:
 178:src/protocol_handler.c ****         if (can_is_initialized(ch)) ch_active |= (1U << ch);
 1657              		.loc 1 178 58 discriminator 2 view .LVU462
 1658 002e E4B2     		uxtb	r4, r4
 1659              	.LVL160:
 1660              	.L118:
 178:src/protocol_handler.c ****         if (can_is_initialized(ch)) ch_active |= (1U << ch);
 1661              		.loc 1 178 26 is_stmt 1 discriminator 1 view .LVU463
 178:src/protocol_handler.c ****         if (can_is_initialized(ch)) ch_active |= (1U << ch);
 1662              		.loc 1 178 31 is_stmt 0 discriminator 1 view .LVU464
 1663 0030 FFF7FEFF 		bl	can_get_channel_count
 1664              	.LVL161:
 178:src/protocol_handler.c ****         if (can_is_initialized(ch)) ch_active |= (1U << ch);
 1665              		.loc 1 178 5 discriminator 1 view .LVU465
 1666 0034 A042     		cmp	r0, r4
 1667 0036 09D9     		bls	.L123
 179:src/protocol_handler.c ****     }
 1668              		.loc 1 179 9 is_stmt 1 view .LVU466
 179:src/protocol_handler.c ****     }
 1669              		.loc 1 179 13 is_stmt 0 view .LVU467
 1670 0038 2046     		mov	r0, r4
 1671 003a FFF7FEFF 		bl	can_is_initialized
 1672              	.LVL162:
 179:src/protocol_handler.c ****     }
 1673              		.loc 1 179 12 view .LVU468
 1674 003e 0028     		cmp	r0, #0
 1675 0040 F4D0     		beq	.L119
 179:src/protocol_handler.c ****     }
 1676              		.loc 1 179 37 is_stmt 1 discriminator 1 view .LVU469
 179:src/protocol_handler.c ****     }
 1677              		.loc 1 179 54 is_stmt 0 discriminator 1 view .LVU470
 1678 0042 0123     		movs	r3, #1
 1679 0044 A340     		lsls	r3, r3, r4
 179:src/protocol_handler.c ****     }
 1680              		.loc 1 179 47 discriminator 1 view .LVU471
 1681 0046 1D43     		orrs	r5, r5, r3
 1682              	.LVL163:
 179:src/protocol_handler.c ****     }
 1683              		.loc 1 179 47 discriminator 1 view .LVU472
 1684 0048 EDB2     		uxtb	r5, r5
 1685              	.LVL164:
 179:src/protocol_handler.c ****     }
 1686              		.loc 1 179 47 discriminator 1 view .LVU473
 1687 004a EFE7     		b	.L119
 1688              	.L123:
 179:src/protocol_handler.c ****     }
 1689              		.loc 1 179 47 discriminator 1 view .LVU474
 1690              	.LBE8:
 181:src/protocol_handler.c **** 
 1691              		.loc 1 181 5 is_stmt 1 view .LVU475
 181:src/protocol_handler.c **** 
ARM GAS  C:\WINDOWS\cciIg2oO.s 			page 46


 1692              		.loc 1 181 30 is_stmt 0 view .LVU476
 1693 004c 8DF81350 		strb	r5, [sp, #19]
 184:src/protocol_handler.c ****     uint32_t sample_rate;
 1694              		.loc 1 184 5 is_stmt 1 view .LVU477
 185:src/protocol_handler.c ****     uint8_t resolution;
 1695              		.loc 1 185 5 view .LVU478
 186:src/protocol_handler.c ****     if (adc_get_status(&is_sampling, &sample_rate, &resolution) == ADC_OK) {
 1696              		.loc 1 186 5 view .LVU479
 187:src/protocol_handler.c ****         resp.adc_sampling = is_sampling;
 1697              		.loc 1 187 5 view .LVU480
 187:src/protocol_handler.c ****         resp.adc_sampling = is_sampling;
 1698              		.loc 1 187 9 is_stmt 0 view .LVU481
 1699 0050 0DF10702 		add	r2, sp, #7
 1700 0054 02A9     		add	r1, sp, #8
 1701 0056 0DF10F00 		add	r0, sp, #15
 1702 005a FFF7FEFF 		bl	adc_get_status
 1703              	.LVL165:
 187:src/protocol_handler.c ****         resp.adc_sampling = is_sampling;
 1704              		.loc 1 187 8 view .LVU482
 1705 005e 18B9     		cbnz	r0, .L121
 188:src/protocol_handler.c ****     }
 1706              		.loc 1 188 9 is_stmt 1 view .LVU483
 188:src/protocol_handler.c ****     }
 1707              		.loc 1 188 27 is_stmt 0 view .LVU484
 1708 0060 9DF80F30 		ldrb	r3, [sp, #15]	@ zero_extendqisi2
 1709 0064 8DF81130 		strb	r3, [sp, #17]
 1710              	.L121:
 191:src/protocol_handler.c **** }
 1711              		.loc 1 191 5 is_stmt 1 view .LVU485
 1712 0068 0822     		movs	r2, #8
 1713 006a 04A9     		add	r1, sp, #16
 1714 006c 8320     		movs	r0, #131
 1715 006e FFF7FEFF 		bl	proto_send_data
 1716              	.LVL166:
 192:src/protocol_handler.c **** 
 1717              		.loc 1 192 1 is_stmt 0 view .LVU486
 1718 0072 07B0     		add	sp, sp, #28
 1719              	.LCFI63:
 1720              		.cfi_def_cfa_offset 12
 1721              		@ sp needed
 1722 0074 30BD     		pop	{r4, r5, pc}
 192:src/protocol_handler.c **** 
 1723              		.loc 1 192 1 view .LVU487
 1724              		.cfi_endproc
 1725              	.LFE7:
 1727              		.section	.text.handle_get_capabilities,"ax",%progbits
 1728              		.align	1
 1729              		.syntax unified
 1730              		.thumb
 1731              		.thumb_func
 1733              	handle_get_capabilities:
 1734              	.LVL167:
 1735              	.LFB6:
 147:src/protocol_handler.c ****     (void)data;
 1736              		.loc 1 147 1 is_stmt 1 view -0
 1737              		.cfi_startproc
 1738              		@ args = 0, pretend = 0, frame = 32
ARM GAS  C:\WINDOWS\cciIg2oO.s 			page 47


 1739              		@ frame_needed = 0, uses_anonymous_args = 0
 147:src/protocol_handler.c ****     (void)data;
 1740              		.loc 1 147 1 is_stmt 0 view .LVU489
 1741 0000 00B5     		push	{lr}
 1742              	.LCFI64:
 1743              		.cfi_def_cfa_offset 4
 1744              		.cfi_offset 14, -4
 1745 0002 89B0     		sub	sp, sp, #36
 1746              	.LCFI65:
 1747              		.cfi_def_cfa_offset 40
 148:src/protocol_handler.c ****     (void)data_len;
 1748              		.loc 1 148 5 is_stmt 1 view .LVU490
 149:src/protocol_handler.c **** 
 1749              		.loc 1 149 5 view .LVU491
 151:src/protocol_handler.c ****     device_get_capabilities(&caps);
 1750              		.loc 1 151 5 view .LVU492
 152:src/protocol_handler.c **** 
 1751              		.loc 1 152 5 view .LVU493
 1752 0004 04A8     		add	r0, sp, #16
 1753              	.LVL168:
 152:src/protocol_handler.c **** 
 1754              		.loc 1 152 5 is_stmt 0 view .LVU494
 1755 0006 FFF7FEFF 		bl	device_get_capabilities
 1756              	.LVL169:
 154:src/protocol_handler.c ****     memset(&resp, 0, sizeof(resp));
 1757              		.loc 1 154 5 is_stmt 1 view .LVU495
 155:src/protocol_handler.c ****     resp.capability_bits    = caps.capability_bits;
 1758              		.loc 1 155 5 view .LVU496
 1759 000a 0023     		movs	r3, #0
 1760 000c 0193     		str	r3, [sp, #4]
 1761 000e 0293     		str	r3, [sp, #8]
 1762 0010 0393     		str	r3, [sp, #12]
 156:src/protocol_handler.c ****     resp.can_channel_count  = caps.can_channel_count;
 1763              		.loc 1 156 5 view .LVU497
 156:src/protocol_handler.c ****     resp.can_channel_count  = caps.can_channel_count;
 1764              		.loc 1 156 35 is_stmt 0 view .LVU498
 1765 0012 049B     		ldr	r3, [sp, #16]
 156:src/protocol_handler.c ****     resp.can_channel_count  = caps.can_channel_count;
 1766              		.loc 1 156 29 view .LVU499
 1767 0014 0193     		str	r3, [sp, #4]
 157:src/protocol_handler.c ****     resp.max_adc_sample_rate = caps.max_adc_sample_rate;
 1768              		.loc 1 157 5 is_stmt 1 view .LVU500
 157:src/protocol_handler.c ****     resp.max_adc_sample_rate = caps.max_adc_sample_rate;
 1769              		.loc 1 157 35 is_stmt 0 view .LVU501
 1770 0016 9DF81430 		ldrb	r3, [sp, #20]	@ zero_extendqisi2
 157:src/protocol_handler.c ****     resp.max_adc_sample_rate = caps.max_adc_sample_rate;
 1771              		.loc 1 157 29 view .LVU502
 1772 001a 8DF80830 		strb	r3, [sp, #8]
 158:src/protocol_handler.c ****     resp.adc_resolution     = caps.adc_resolution_bits;
 1773              		.loc 1 158 5 is_stmt 1 view .LVU503
 158:src/protocol_handler.c ****     resp.adc_resolution     = caps.adc_resolution_bits;
 1774              		.loc 1 158 36 is_stmt 0 view .LVU504
 1775 001e 069B     		ldr	r3, [sp, #24]
 158:src/protocol_handler.c ****     resp.adc_resolution     = caps.adc_resolution_bits;
 1776              		.loc 1 158 30 view .LVU505
 1777 0020 CDF80930 		str	r3, [sp, #9]	@ unaligned
 159:src/protocol_handler.c ****     resp.max_can_baudrate   = caps.max_can_baudrate_kbps;
ARM GAS  C:\WINDOWS\cciIg2oO.s 			page 48


 1778              		.loc 1 159 5 is_stmt 1 view .LVU506
 159:src/protocol_handler.c ****     resp.max_can_baudrate   = caps.max_can_baudrate_kbps;
 1779              		.loc 1 159 35 is_stmt 0 view .LVU507
 1780 0024 9DF81C30 		ldrb	r3, [sp, #28]	@ zero_extendqisi2
 159:src/protocol_handler.c ****     resp.max_can_baudrate   = caps.max_can_baudrate_kbps;
 1781              		.loc 1 159 29 view .LVU508
 1782 0028 8DF80D30 		strb	r3, [sp, #13]
 160:src/protocol_handler.c **** 
 1783              		.loc 1 160 5 is_stmt 1 view .LVU509
 160:src/protocol_handler.c **** 
 1784              		.loc 1 160 35 is_stmt 0 view .LVU510
 1785 002c BDF81E30 		ldrh	r3, [sp, #30]
 160:src/protocol_handler.c **** 
 1786              		.loc 1 160 29 view .LVU511
 1787 0030 ADF80E30 		strh	r3, [sp, #14]	@ movhi
 162:src/protocol_handler.c **** }
 1788              		.loc 1 162 5 is_stmt 1 view .LVU512
 1789 0034 0C22     		movs	r2, #12
 1790 0036 01A9     		add	r1, sp, #4
 1791 0038 8220     		movs	r0, #130
 1792 003a FFF7FEFF 		bl	proto_send_data
 1793              	.LVL170:
 163:src/protocol_handler.c **** 
 1794              		.loc 1 163 1 is_stmt 0 view .LVU513
 1795 003e 09B0     		add	sp, sp, #36
 1796              	.LCFI66:
 1797              		.cfi_def_cfa_offset 4
 1798              		@ sp needed
 1799 0040 5DF804FB 		ldr	pc, [sp], #4
 1800              		.cfi_endproc
 1801              	.LFE6:
 1803              		.section	.text.handle_get_info,"ax",%progbits
 1804              		.align	1
 1805              		.syntax unified
 1806              		.thumb
 1807              		.thumb_func
 1809              	handle_get_info:
 1810              	.LVL171:
 1811              	.LFB5:
 126:src/protocol_handler.c ****     (void)data;
 1812              		.loc 1 126 1 is_stmt 1 view -0
 1813              		.cfi_startproc
 1814              		@ args = 0, pretend = 0, frame = 152
 1815              		@ frame_needed = 0, uses_anonymous_args = 0
 126:src/protocol_handler.c ****     (void)data;
 1816              		.loc 1 126 1 is_stmt 0 view .LVU515
 1817 0000 10B5     		push	{r4, lr}
 1818              	.LCFI67:
 1819              		.cfi_def_cfa_offset 8
 1820              		.cfi_offset 4, -8
 1821              		.cfi_offset 14, -4
 1822 0002 A6B0     		sub	sp, sp, #152
 1823              	.LCFI68:
 1824              		.cfi_def_cfa_offset 160
 127:src/protocol_handler.c ****     (void)data_len;
 1825              		.loc 1 127 5 is_stmt 1 view .LVU516
 128:src/protocol_handler.c **** 
ARM GAS  C:\WINDOWS\cciIg2oO.s 			page 49


 1826              		.loc 1 128 5 view .LVU517
 130:src/protocol_handler.c ****     device_get_info(&info);
 1827              		.loc 1 130 5 view .LVU518
 131:src/protocol_handler.c **** 
 1828              		.loc 1 131 5 view .LVU519
 1829 0004 14A8     		add	r0, sp, #80
 1830              	.LVL172:
 131:src/protocol_handler.c **** 
 1831              		.loc 1 131 5 is_stmt 0 view .LVU520
 1832 0006 FFF7FEFF 		bl	device_get_info
 1833              	.LVL173:
 133:src/protocol_handler.c ****     memset(&resp, 0, sizeof(resp));
 1834              		.loc 1 133 5 is_stmt 1 view .LVU521
 134:src/protocol_handler.c ****     resp.fw_major   = info.fw_major;
 1835              		.loc 1 134 5 view .LVU522
 1836 000a 4A24     		movs	r4, #74
 1837 000c 2246     		mov	r2, r4
 1838 000e 0021     		movs	r1, #0
 1839 0010 01A8     		add	r0, sp, #4
 1840 0012 FFF7FEFF 		bl	memset
 1841              	.LVL174:
 135:src/protocol_handler.c ****     resp.fw_minor   = info.fw_minor;
 1842              		.loc 1 135 5 view .LVU523
 135:src/protocol_handler.c ****     resp.fw_minor   = info.fw_minor;
 1843              		.loc 1 135 27 is_stmt 0 view .LVU524
 1844 0016 9DF85030 		ldrb	r3, [sp, #80]	@ zero_extendqisi2
 135:src/protocol_handler.c ****     resp.fw_minor   = info.fw_minor;
 1845              		.loc 1 135 21 view .LVU525
 1846 001a 8DF80430 		strb	r3, [sp, #4]
 136:src/protocol_handler.c ****     resp.fw_patch   = info.fw_patch;
 1847              		.loc 1 136 5 is_stmt 1 view .LVU526
 136:src/protocol_handler.c ****     resp.fw_patch   = info.fw_patch;
 1848              		.loc 1 136 27 is_stmt 0 view .LVU527
 1849 001e 9DF85130 		ldrb	r3, [sp, #81]	@ zero_extendqisi2
 136:src/protocol_handler.c ****     resp.fw_patch   = info.fw_patch;
 1850              		.loc 1 136 21 view .LVU528
 1851 0022 8DF80530 		strb	r3, [sp, #5]
 137:src/protocol_handler.c ****     resp.protocol_version = (uint16_t)((PROTOCOL_VERSION_MAJOR << 8) | PROTOCOL_VERSION_MINOR);
 1852              		.loc 1 137 5 is_stmt 1 view .LVU529
 137:src/protocol_handler.c ****     resp.protocol_version = (uint16_t)((PROTOCOL_VERSION_MAJOR << 8) | PROTOCOL_VERSION_MINOR);
 1853              		.loc 1 137 27 is_stmt 0 view .LVU530
 1854 0026 9DF85230 		ldrb	r3, [sp, #82]	@ zero_extendqisi2
 137:src/protocol_handler.c ****     resp.protocol_version = (uint16_t)((PROTOCOL_VERSION_MAJOR << 8) | PROTOCOL_VERSION_MINOR);
 1855              		.loc 1 137 21 view .LVU531
 1856 002a 8DF80630 		strb	r3, [sp, #6]
 138:src/protocol_handler.c ****     resp.device_serial = info.device_serial;
 1857              		.loc 1 138 5 is_stmt 1 view .LVU532
 138:src/protocol_handler.c ****     resp.device_serial = info.device_serial;
 1858              		.loc 1 138 27 is_stmt 0 view .LVU533
 1859 002e 4FF48073 		mov	r3, #256
 1860 0032 ADF80830 		strh	r3, [sp, #8]	@ movhi
 139:src/protocol_handler.c ****     strncpy(resp.mcu_model, info.mcu_model, sizeof(resp.mcu_model) - 1);
 1861              		.loc 1 139 5 is_stmt 1 view .LVU534
 139:src/protocol_handler.c ****     strncpy(resp.mcu_model, info.mcu_model, sizeof(resp.mcu_model) - 1);
 1862              		.loc 1 139 30 is_stmt 0 view .LVU535
 1863 0036 259B     		ldr	r3, [sp, #148]
 139:src/protocol_handler.c ****     strncpy(resp.mcu_model, info.mcu_model, sizeof(resp.mcu_model) - 1);
ARM GAS  C:\WINDOWS\cciIg2oO.s 			page 50


 1864              		.loc 1 139 24 view .LVU536
 1865 0038 CDF84A30 		str	r3, [sp, #74]	@ unaligned
 140:src/protocol_handler.c ****     strncpy(resp.fw_description, info.fw_description, sizeof(resp.fw_description) - 1);
 1866              		.loc 1 140 5 is_stmt 1 view .LVU537
 1867 003c 1F22     		movs	r2, #31
 1868 003e 0DF15301 		add	r1, sp, #83
 1869 0042 0DF10A00 		add	r0, sp, #10
 1870 0046 FFF7FEFF 		bl	strncpy
 1871              	.LVL175:
 141:src/protocol_handler.c **** 
 1872              		.loc 1 141 5 view .LVU538
 1873 004a 1F22     		movs	r2, #31
 1874 004c 0DF17301 		add	r1, sp, #115
 1875 0050 0DF12A00 		add	r0, sp, #42
 1876 0054 FFF7FEFF 		bl	strncpy
 1877              	.LVL176:
 143:src/protocol_handler.c **** }
 1878              		.loc 1 143 5 view .LVU539
 1879 0058 2246     		mov	r2, r4
 1880 005a 01A9     		add	r1, sp, #4
 1881 005c 8120     		movs	r0, #129
 1882 005e FFF7FEFF 		bl	proto_send_data
 1883              	.LVL177:
 144:src/protocol_handler.c **** 
 1884              		.loc 1 144 1 is_stmt 0 view .LVU540
 1885 0062 26B0     		add	sp, sp, #152
 1886              	.LCFI69:
 1887              		.cfi_def_cfa_offset 8
 1888              		@ sp needed
 1889 0064 10BD     		pop	{r4, pc}
 1890              		.cfi_endproc
 1891              	.LFE5:
 1893              		.section	.text.protocol_process_byte,"ax",%progbits
 1894              		.align	1
 1895              		.global	protocol_process_byte
 1896              		.syntax unified
 1897              		.thumb
 1898              		.thumb_func
 1900              	protocol_process_byte:
 1901              	.LVL178:
 1902              	.LFB21:
 483:src/protocol_handler.c **** 
 484:src/protocol_handler.c **** /*============================================================================
 485:src/protocol_handler.c ****  * Public API
 486:src/protocol_handler.c ****  *============================================================================*/
 487:src/protocol_handler.c **** 
 488:src/protocol_handler.c **** /**
 489:src/protocol_handler.c ****  * @brief Process incoming byte stream and dispatch complete frames.
 490:src/protocol_handler.c ****  *        Call this from the main loop or from a comm RX callback.
 491:src/protocol_handler.c ****  * @param byte      Incoming byte
 492:src/protocol_handler.c ****  * @return 0 if no complete frame processed, 1 if a frame was handled, -1 on error
 493:src/protocol_handler.c ****  */
 494:src/protocol_handler.c **** int protocol_process_byte(uint8_t byte)
 495:src/protocol_handler.c **** {
 1903              		.loc 1 495 1 is_stmt 1 view -0
 1904              		.cfi_startproc
 1905              		@ args = 0, pretend = 0, frame = 0
ARM GAS  C:\WINDOWS\cciIg2oO.s 			page 51


 1906              		@ frame_needed = 0, uses_anonymous_args = 0
 496:src/protocol_handler.c ****     /* State machine: wait for magic header */
 497:src/protocol_handler.c ****     if (g_rx_buf_pos == 0) {
 1907              		.loc 1 497 5 view .LVU542
 1908              		.loc 1 497 22 is_stmt 0 view .LVU543
 1909 0000 2F4B     		ldr	r3, .L146
 1910 0002 1B88     		ldrh	r3, [r3]
 1911              		.loc 1 497 8 view .LVU544
 1912 0004 63B9     		cbnz	r3, .L129
 498:src/protocol_handler.c ****         if (byte != PROTOCOL_MAGIC_HEADER) {
 1913              		.loc 1 498 9 is_stmt 1 view .LVU545
 1914              		.loc 1 498 12 is_stmt 0 view .LVU546
 1915 0006 A528     		cmp	r0, #165
 1916 0008 01D0     		beq	.L143
 499:src/protocol_handler.c ****             return 0; /* Not the start of a frame, discard */
 1917              		.loc 1 499 20 view .LVU547
 1918 000a 0020     		movs	r0, #0
 1919              	.LVL179:
 500:src/protocol_handler.c ****         }
 501:src/protocol_handler.c ****         g_rx_buf[g_rx_buf_pos++] = byte;
 502:src/protocol_handler.c ****         g_rx_expected_len = 0;
 503:src/protocol_handler.c ****         return 0;
 504:src/protocol_handler.c ****     }
 505:src/protocol_handler.c **** 
 506:src/protocol_handler.c ****     /* Receiving frame header/data */
 507:src/protocol_handler.c ****     if (g_rx_buf_pos < PROTOCOL_FRAME_TOTAL_MAX) {
 508:src/protocol_handler.c ****         g_rx_buf[g_rx_buf_pos++] = byte;
 509:src/protocol_handler.c **** 
 510:src/protocol_handler.c ****         /* Once we have the length field (header bytes 1–2), compute expected length */
 511:src/protocol_handler.c ****         if (g_rx_buf_pos == 3) {
 512:src/protocol_handler.c ****             g_rx_expected_len = (uint16_t)g_rx_buf[1] | ((uint16_t)g_rx_buf[2] << 8);
 513:src/protocol_handler.c ****             if (g_rx_expected_len > PROTOCOL_FRAME_TOTAL_MAX || g_rx_expected_len < PROTOCOL_FRAME_
 514:src/protocol_handler.c ****                 /* Invalid length, reset */
 515:src/protocol_handler.c ****                 g_rx_buf_pos = 0;
 516:src/protocol_handler.c ****                 return -1;
 517:src/protocol_handler.c ****             }
 518:src/protocol_handler.c ****         }
 519:src/protocol_handler.c **** 
 520:src/protocol_handler.c ****         /* Check if we have a complete frame */
 521:src/protocol_handler.c ****         if (g_rx_expected_len > 0 && g_rx_buf_pos >= g_rx_expected_len) {
 522:src/protocol_handler.c ****             /* Validate and dispatch */
 523:src/protocol_handler.c ****             int valid = proto_validate_frame(g_rx_buf, g_rx_expected_len);
 524:src/protocol_handler.c ****             if (valid == 0) {
 525:src/protocol_handler.c ****                 uint8_t cmd = g_rx_buf[3];
 526:src/protocol_handler.c ****                 uint16_t data_len = PROTO_GET_DATA_LEN(g_rx_expected_len);
 527:src/protocol_handler.c **** 
 528:src/protocol_handler.c ****                 /* Lookup and execute handler */
 529:src/protocol_handler.c ****                 for (size_t i = 0; i < CMD_TABLE_SIZE; i++) {
 530:src/protocol_handler.c ****                     if (g_cmd_table[i].cmd == cmd) {
 531:src/protocol_handler.c ****                         g_cmd_table[i].handler(
 532:src/protocol_handler.c ****                             &g_rx_buf[PROTOCOL_FRAME_HEADER_SIZE], data_len);
 533:src/protocol_handler.c ****                         break;
 534:src/protocol_handler.c ****                     }
 535:src/protocol_handler.c ****                 }
 536:src/protocol_handler.c ****             }
 537:src/protocol_handler.c **** 
 538:src/protocol_handler.c ****             g_rx_buf_pos = 0;
ARM GAS  C:\WINDOWS\cciIg2oO.s 			page 52


 539:src/protocol_handler.c ****             g_rx_expected_len = 0;
 540:src/protocol_handler.c ****             return 1;
 541:src/protocol_handler.c ****         }
 542:src/protocol_handler.c **** 
 543:src/protocol_handler.c ****         return 0;
 544:src/protocol_handler.c ****     }
 545:src/protocol_handler.c **** 
 546:src/protocol_handler.c ****     /* Buffer overflow, reset */
 547:src/protocol_handler.c ****     g_rx_buf_pos = 0;
 548:src/protocol_handler.c ****     g_rx_expected_len = 0;
 549:src/protocol_handler.c ****     return -1;
 550:src/protocol_handler.c **** }
 1920              		.loc 1 550 1 view .LVU548
 1921 000c 7047     		bx	lr
 1922              	.LVL180:
 1923              	.L143:
 501:src/protocol_handler.c ****         g_rx_expected_len = 0;
 1924              		.loc 1 501 9 is_stmt 1 view .LVU549
 501:src/protocol_handler.c ****         g_rx_expected_len = 0;
 1925              		.loc 1 501 30 is_stmt 0 view .LVU550
 1926 000e 591C     		adds	r1, r3, #1
 1927 0010 2B4A     		ldr	r2, .L146
 1928 0012 1180     		strh	r1, [r2]	@ movhi
 501:src/protocol_handler.c ****         g_rx_expected_len = 0;
 1929              		.loc 1 501 34 view .LVU551
 1930 0014 2B4A     		ldr	r2, .L146+4
 1931 0016 D054     		strb	r0, [r2, r3]
 502:src/protocol_handler.c ****         return 0;
 1932              		.loc 1 502 9 is_stmt 1 view .LVU552
 502:src/protocol_handler.c ****         return 0;
 1933              		.loc 1 502 27 is_stmt 0 view .LVU553
 1934 0018 0020     		movs	r0, #0
 1935              	.LVL181:
 502:src/protocol_handler.c ****         return 0;
 1936              		.loc 1 502 27 view .LVU554
 1937 001a 2B4B     		ldr	r3, .L146+8
 1938              	.LVL182:
 502:src/protocol_handler.c ****         return 0;
 1939              		.loc 1 502 27 view .LVU555
 1940 001c 1880     		strh	r0, [r3]	@ movhi
 503:src/protocol_handler.c ****     }
 1941              		.loc 1 503 9 is_stmt 1 view .LVU556
 503:src/protocol_handler.c ****     }
 1942              		.loc 1 503 16 is_stmt 0 view .LVU557
 1943 001e 7047     		bx	lr
 1944              	.LVL183:
 1945              	.L129:
 507:src/protocol_handler.c ****         g_rx_buf[g_rx_buf_pos++] = byte;
 1946              		.loc 1 507 5 is_stmt 1 view .LVU558
 507:src/protocol_handler.c ****         g_rx_buf[g_rx_buf_pos++] = byte;
 1947              		.loc 1 507 8 is_stmt 0 view .LVU559
 1948 0020 B3F5847F 		cmp	r3, #264
 1949 0024 3FD8     		bhi	.L131
 508:src/protocol_handler.c **** 
 1950              		.loc 1 508 9 is_stmt 1 view .LVU560
 508:src/protocol_handler.c **** 
 1951              		.loc 1 508 30 is_stmt 0 view .LVU561
ARM GAS  C:\WINDOWS\cciIg2oO.s 			page 53


 1952 0026 5A1C     		adds	r2, r3, #1
 1953 0028 92B2     		uxth	r2, r2
 1954 002a 2549     		ldr	r1, .L146
 1955 002c 0A80     		strh	r2, [r1]	@ movhi
 508:src/protocol_handler.c **** 
 1956              		.loc 1 508 34 view .LVU562
 1957 002e 2549     		ldr	r1, .L146+4
 1958 0030 C854     		strb	r0, [r1, r3]
 511:src/protocol_handler.c ****             g_rx_expected_len = (uint16_t)g_rx_buf[1] | ((uint16_t)g_rx_buf[2] << 8);
 1959              		.loc 1 511 9 is_stmt 1 view .LVU563
 511:src/protocol_handler.c ****             g_rx_expected_len = (uint16_t)g_rx_buf[1] | ((uint16_t)g_rx_buf[2] << 8);
 1960              		.loc 1 511 12 is_stmt 0 view .LVU564
 1961 0032 032A     		cmp	r2, #3
 1962 0034 19D0     		beq	.L144
 1963              	.L132:
 495:src/protocol_handler.c ****     /* State machine: wait for magic header */
 1964              		.loc 1 495 1 view .LVU565
 1965 0036 10B5     		push	{r4, lr}
 1966              	.LCFI70:
 1967              		.cfi_def_cfa_offset 8
 1968              		.cfi_offset 4, -8
 1969              		.cfi_offset 14, -4
 521:src/protocol_handler.c ****             /* Validate and dispatch */
 1970              		.loc 1 521 9 is_stmt 1 view .LVU566
 521:src/protocol_handler.c ****             /* Validate and dispatch */
 1971              		.loc 1 521 31 is_stmt 0 view .LVU567
 1972 0038 234B     		ldr	r3, .L146+8
 1973 003a 1C88     		ldrh	r4, [r3]
 521:src/protocol_handler.c ****             /* Validate and dispatch */
 1974              		.loc 1 521 12 view .LVU568
 1975 003c 002C     		cmp	r4, #0
 1976 003e 3AD0     		beq	.L138
 521:src/protocol_handler.c ****             /* Validate and dispatch */
 1977              		.loc 1 521 35 discriminator 1 view .LVU569
 1978 0040 A242     		cmp	r2, r4
 1979 0042 3AD3     		bcc	.L139
 1980              	.LBB9:
 523:src/protocol_handler.c ****             if (valid == 0) {
 1981              		.loc 1 523 13 is_stmt 1 view .LVU570
 523:src/protocol_handler.c ****             if (valid == 0) {
 1982              		.loc 1 523 25 is_stmt 0 view .LVU571
 1983 0044 2146     		mov	r1, r4
 1984 0046 1F48     		ldr	r0, .L146+4
 1985              	.LVL184:
 523:src/protocol_handler.c ****             if (valid == 0) {
 1986              		.loc 1 523 25 view .LVU572
 1987 0048 FFF7FEFF 		bl	proto_validate_frame
 1988              	.LVL185:
 524:src/protocol_handler.c ****                 uint8_t cmd = g_rx_buf[3];
 1989              		.loc 1 524 13 is_stmt 1 view .LVU573
 524:src/protocol_handler.c ****                 uint8_t cmd = g_rx_buf[3];
 1990              		.loc 1 524 16 is_stmt 0 view .LVU574
 1991 004c 20BB     		cbnz	r0, .L133
 1992              	.LBB10:
 525:src/protocol_handler.c ****                 uint16_t data_len = PROTO_GET_DATA_LEN(g_rx_expected_len);
 1993              		.loc 1 525 17 is_stmt 1 view .LVU575
 525:src/protocol_handler.c ****                 uint16_t data_len = PROTO_GET_DATA_LEN(g_rx_expected_len);
ARM GAS  C:\WINDOWS\cciIg2oO.s 			page 54


 1994              		.loc 1 525 25 is_stmt 0 view .LVU576
 1995 004e 1D4B     		ldr	r3, .L146+4
 1996 0050 D878     		ldrb	r0, [r3, #3]	@ zero_extendqisi2
 1997              	.LVL186:
 526:src/protocol_handler.c **** 
 1998              		.loc 1 526 17 is_stmt 1 view .LVU577
 526:src/protocol_handler.c **** 
 1999              		.loc 1 526 26 is_stmt 0 view .LVU578
 2000 0052 093C     		subs	r4, r4, #9
 2001 0054 A1B2     		uxth	r1, r4
 2002              	.LVL187:
 529:src/protocol_handler.c ****                     if (g_cmd_table[i].cmd == cmd) {
 2003              		.loc 1 529 17 is_stmt 1 view .LVU579
 2004              	.LBB11:
 529:src/protocol_handler.c ****                     if (g_cmd_table[i].cmd == cmd) {
 2005              		.loc 1 529 22 view .LVU580
 529:src/protocol_handler.c ****                     if (g_cmd_table[i].cmd == cmd) {
 2006              		.loc 1 529 29 is_stmt 0 view .LVU581
 2007 0056 0023     		movs	r3, #0
 2008              	.LVL188:
 2009              	.L134:
 529:src/protocol_handler.c ****                     if (g_cmd_table[i].cmd == cmd) {
 2010              		.loc 1 529 36 is_stmt 1 discriminator 1 view .LVU582
 529:src/protocol_handler.c ****                     if (g_cmd_table[i].cmd == cmd) {
 2011              		.loc 1 529 17 is_stmt 0 discriminator 1 view .LVU583
 2012 0058 0E2B     		cmp	r3, #14
 2013 005a 1DD8     		bhi	.L133
 530:src/protocol_handler.c ****                         g_cmd_table[i].handler(
 2014              		.loc 1 530 21 is_stmt 1 view .LVU584
 530:src/protocol_handler.c ****                         g_cmd_table[i].handler(
 2015              		.loc 1 530 39 is_stmt 0 view .LVU585
 2016 005c 1B4A     		ldr	r2, .L146+12
 2017 005e 12F83320 		ldrb	r2, [r2, r3, lsl #3]	@ zero_extendqisi2
 530:src/protocol_handler.c ****                         g_cmd_table[i].handler(
 2018              		.loc 1 530 24 view .LVU586
 2019 0062 8242     		cmp	r2, r0
 2020 0064 12D0     		beq	.L145
 529:src/protocol_handler.c ****                     if (g_cmd_table[i].cmd == cmd) {
 2021              		.loc 1 529 56 is_stmt 1 discriminator 2 view .LVU587
 529:src/protocol_handler.c ****                     if (g_cmd_table[i].cmd == cmd) {
 2022              		.loc 1 529 57 is_stmt 0 discriminator 2 view .LVU588
 2023 0066 0133     		adds	r3, r3, #1
 2024              	.LVL189:
 529:src/protocol_handler.c ****                     if (g_cmd_table[i].cmd == cmd) {
 2025              		.loc 1 529 57 discriminator 2 view .LVU589
 2026 0068 F6E7     		b	.L134
 2027              	.LVL190:
 2028              	.L144:
 2029              	.LCFI71:
 2030              		.cfi_def_cfa_offset 0
 2031              		.cfi_restore 4
 2032              		.cfi_restore 14
 529:src/protocol_handler.c ****                     if (g_cmd_table[i].cmd == cmd) {
 2033              		.loc 1 529 57 discriminator 2 view .LVU590
 2034              	.LBE11:
 2035              	.LBE10:
 2036              	.LBE9:
ARM GAS  C:\WINDOWS\cciIg2oO.s 			page 55


 512:src/protocol_handler.c ****             if (g_rx_expected_len > PROTOCOL_FRAME_TOTAL_MAX || g_rx_expected_len < PROTOCOL_FRAME_
 2037              		.loc 1 512 13 is_stmt 1 view .LVU591
 512:src/protocol_handler.c ****             if (g_rx_expected_len > PROTOCOL_FRAME_TOTAL_MAX || g_rx_expected_len < PROTOCOL_FRAME_
 2038              		.loc 1 512 51 is_stmt 0 view .LVU592
 2039 006a 4B78     		ldrb	r3, [r1, #1]	@ zero_extendqisi2
 512:src/protocol_handler.c ****             if (g_rx_expected_len > PROTOCOL_FRAME_TOTAL_MAX || g_rx_expected_len < PROTOCOL_FRAME_
 2040              		.loc 1 512 76 view .LVU593
 2041 006c 8978     		ldrb	r1, [r1, #2]	@ zero_extendqisi2
 512:src/protocol_handler.c ****             if (g_rx_expected_len > PROTOCOL_FRAME_TOTAL_MAX || g_rx_expected_len < PROTOCOL_FRAME_
 2042              		.loc 1 512 55 view .LVU594
 2043 006e 43EA0123 		orr	r3, r3, r1, lsl #8
 512:src/protocol_handler.c ****             if (g_rx_expected_len > PROTOCOL_FRAME_TOTAL_MAX || g_rx_expected_len < PROTOCOL_FRAME_
 2044              		.loc 1 512 31 view .LVU595
 2045 0072 1549     		ldr	r1, .L146+8
 2046 0074 0B80     		strh	r3, [r1]	@ movhi
 513:src/protocol_handler.c ****                 /* Invalid length, reset */
 2047              		.loc 1 513 13 is_stmt 1 view .LVU596
 513:src/protocol_handler.c ****                 /* Invalid length, reset */
 2048              		.loc 1 513 62 is_stmt 0 view .LVU597
 2049 0076 093B     		subs	r3, r3, #9
 2050 0078 9BB2     		uxth	r3, r3
 513:src/protocol_handler.c ****                 /* Invalid length, reset */
 2051              		.loc 1 513 16 view .LVU598
 2052 007a B3F5807F 		cmp	r3, #256
 2053 007e DAD9     		bls	.L132
 515:src/protocol_handler.c ****                 return -1;
 2054              		.loc 1 515 17 is_stmt 1 view .LVU599
 515:src/protocol_handler.c ****                 return -1;
 2055              		.loc 1 515 30 is_stmt 0 view .LVU600
 2056 0080 0F4B     		ldr	r3, .L146
 2057 0082 0022     		movs	r2, #0
 2058 0084 1A80     		strh	r2, [r3]	@ movhi
 516:src/protocol_handler.c ****             }
 2059              		.loc 1 516 17 is_stmt 1 view .LVU601
 516:src/protocol_handler.c ****             }
 2060              		.loc 1 516 24 is_stmt 0 view .LVU602
 2061 0086 4FF0FF30 		mov	r0, #-1
 2062              	.LVL191:
 516:src/protocol_handler.c ****             }
 2063              		.loc 1 516 24 view .LVU603
 2064 008a 7047     		bx	lr
 2065              	.LVL192:
 2066              	.L145:
 2067              	.LCFI72:
 2068              		.cfi_def_cfa_offset 8
 2069              		.cfi_offset 4, -8
 2070              		.cfi_offset 14, -4
 2071              	.LBB14:
 2072              	.LBB13:
 2073              	.LBB12:
 531:src/protocol_handler.c ****                             &g_rx_buf[PROTOCOL_FRAME_HEADER_SIZE], data_len);
 2074              		.loc 1 531 25 is_stmt 1 view .LVU604
 531:src/protocol_handler.c ****                             &g_rx_buf[PROTOCOL_FRAME_HEADER_SIZE], data_len);
 2075              		.loc 1 531 39 is_stmt 0 view .LVU605
 2076 008c 0F4A     		ldr	r2, .L146+12
 2077 008e 02EBC303 		add	r3, r2, r3, lsl #3
 2078              	.LVL193:
ARM GAS  C:\WINDOWS\cciIg2oO.s 			page 56


 531:src/protocol_handler.c ****                             &g_rx_buf[PROTOCOL_FRAME_HEADER_SIZE], data_len);
 2079              		.loc 1 531 39 view .LVU606
 2080 0092 5B68     		ldr	r3, [r3, #4]
 531:src/protocol_handler.c ****                             &g_rx_buf[PROTOCOL_FRAME_HEADER_SIZE], data_len);
 2081              		.loc 1 531 25 view .LVU607
 2082 0094 0E48     		ldr	r0, .L146+16
 2083              	.LVL194:
 531:src/protocol_handler.c ****                             &g_rx_buf[PROTOCOL_FRAME_HEADER_SIZE], data_len);
 2084              		.loc 1 531 25 view .LVU608
 2085 0096 9847     		blx	r3
 2086              	.LVL195:
 533:src/protocol_handler.c ****                     }
 2087              		.loc 1 533 25 is_stmt 1 view .LVU609
 2088              	.L133:
 533:src/protocol_handler.c ****                     }
 2089              		.loc 1 533 25 is_stmt 0 view .LVU610
 2090              	.LBE12:
 2091              	.LBE13:
 538:src/protocol_handler.c ****             g_rx_expected_len = 0;
 2092              		.loc 1 538 13 is_stmt 1 view .LVU611
 538:src/protocol_handler.c ****             g_rx_expected_len = 0;
 2093              		.loc 1 538 26 is_stmt 0 view .LVU612
 2094 0098 0023     		movs	r3, #0
 2095 009a 094A     		ldr	r2, .L146
 2096 009c 1380     		strh	r3, [r2]	@ movhi
 539:src/protocol_handler.c ****             return 1;
 2097              		.loc 1 539 13 is_stmt 1 view .LVU613
 539:src/protocol_handler.c ****             return 1;
 2098              		.loc 1 539 31 is_stmt 0 view .LVU614
 2099 009e 0A4A     		ldr	r2, .L146+8
 2100 00a0 1380     		strh	r3, [r2]	@ movhi
 540:src/protocol_handler.c ****         }
 2101              		.loc 1 540 13 is_stmt 1 view .LVU615
 540:src/protocol_handler.c ****         }
 2102              		.loc 1 540 20 is_stmt 0 view .LVU616
 2103 00a2 0120     		movs	r0, #1
 2104 00a4 08E0     		b	.L128
 2105              	.LVL196:
 2106              	.L131:
 2107              	.LCFI73:
 2108              		.cfi_def_cfa_offset 0
 2109              		.cfi_restore 4
 2110              		.cfi_restore 14
 540:src/protocol_handler.c ****         }
 2111              		.loc 1 540 20 view .LVU617
 2112              	.LBE14:
 547:src/protocol_handler.c ****     g_rx_expected_len = 0;
 2113              		.loc 1 547 5 is_stmt 1 view .LVU618
 547:src/protocol_handler.c ****     g_rx_expected_len = 0;
 2114              		.loc 1 547 18 is_stmt 0 view .LVU619
 2115 00a6 0023     		movs	r3, #0
 2116 00a8 054A     		ldr	r2, .L146
 2117 00aa 1380     		strh	r3, [r2]	@ movhi
 548:src/protocol_handler.c ****     return -1;
 2118              		.loc 1 548 5 is_stmt 1 view .LVU620
 548:src/protocol_handler.c ****     return -1;
 2119              		.loc 1 548 23 is_stmt 0 view .LVU621
ARM GAS  C:\WINDOWS\cciIg2oO.s 			page 57


 2120 00ac 064A     		ldr	r2, .L146+8
 2121 00ae 1380     		strh	r3, [r2]	@ movhi
 549:src/protocol_handler.c **** }
 2122              		.loc 1 549 5 is_stmt 1 view .LVU622
 549:src/protocol_handler.c **** }
 2123              		.loc 1 549 12 is_stmt 0 view .LVU623
 2124 00b0 4FF0FF30 		mov	r0, #-1
 2125              	.LVL197:
 549:src/protocol_handler.c **** }
 2126              		.loc 1 549 12 view .LVU624
 2127 00b4 7047     		bx	lr
 2128              	.LVL198:
 2129              	.L138:
 2130              	.LCFI74:
 2131              		.cfi_def_cfa_offset 8
 2132              		.cfi_offset 4, -8
 2133              		.cfi_offset 14, -4
 543:src/protocol_handler.c ****     }
 2134              		.loc 1 543 16 view .LVU625
 2135 00b6 0020     		movs	r0, #0
 2136              	.LVL199:
 2137              	.L128:
 2138              		.loc 1 550 1 view .LVU626
 2139 00b8 10BD     		pop	{r4, pc}
 2140              	.LVL200:
 2141              	.L139:
 543:src/protocol_handler.c ****     }
 2142              		.loc 1 543 16 view .LVU627
 2143 00ba 0020     		movs	r0, #0
 2144              	.LVL201:
 543:src/protocol_handler.c ****     }
 2145              		.loc 1 543 16 view .LVU628
 2146 00bc FCE7     		b	.L128
 2147              	.L147:
 2148 00be 00BF     		.align	2
 2149              	.L146:
 2150 00c0 00000000 		.word	.LANCHOR1
 2151 00c4 00000000 		.word	.LANCHOR2
 2152 00c8 00000000 		.word	.LANCHOR3
 2153 00cc 00000000 		.word	.LANCHOR4
 2154 00d0 06000000 		.word	.LANCHOR2+6
 2155              		.cfi_endproc
 2156              	.LFE21:
 2158              		.section	.text.protocol_process_buffer,"ax",%progbits
 2159              		.align	1
 2160              		.global	protocol_process_buffer
 2161              		.syntax unified
 2162              		.thumb
 2163              		.thumb_func
 2165              	protocol_process_buffer:
 2166              	.LVL202:
 2167              	.LFB22:
 551:src/protocol_handler.c **** 
 552:src/protocol_handler.c **** /**
 553:src/protocol_handler.c ****  * @brief Feed a buffer of received bytes into the protocol processor.
 554:src/protocol_handler.c ****  * @param data      Byte buffer
 555:src/protocol_handler.c ****  * @param length    Number of bytes
ARM GAS  C:\WINDOWS\cciIg2oO.s 			page 58


 556:src/protocol_handler.c ****  */
 557:src/protocol_handler.c **** void protocol_process_buffer(const uint8_t *data, uint16_t length)
 558:src/protocol_handler.c **** {
 2168              		.loc 1 558 1 is_stmt 1 view -0
 2169              		.cfi_startproc
 2170              		@ args = 0, pretend = 0, frame = 0
 2171              		@ frame_needed = 0, uses_anonymous_args = 0
 2172              		.loc 1 558 1 is_stmt 0 view .LVU630
 2173 0000 70B5     		push	{r4, r5, r6, lr}
 2174              	.LCFI75:
 2175              		.cfi_def_cfa_offset 16
 2176              		.cfi_offset 4, -16
 2177              		.cfi_offset 5, -12
 2178              		.cfi_offset 6, -8
 2179              		.cfi_offset 14, -4
 2180 0002 0646     		mov	r6, r0
 2181 0004 0D46     		mov	r5, r1
 559:src/protocol_handler.c ****     for (uint16_t i = 0; i < length; i++) {
 2182              		.loc 1 559 5 is_stmt 1 view .LVU631
 2183              	.LBB15:
 2184              		.loc 1 559 10 view .LVU632
 2185              	.LVL203:
 2186              		.loc 1 559 19 is_stmt 0 view .LVU633
 2187 0006 0024     		movs	r4, #0
 2188              		.loc 1 559 5 view .LVU634
 2189 0008 04E0     		b	.L149
 2190              	.LVL204:
 2191              	.L150:
 560:src/protocol_handler.c ****         protocol_process_byte(data[i]);
 2192              		.loc 1 560 9 is_stmt 1 discriminator 3 view .LVU635
 2193 000a 305D     		ldrb	r0, [r6, r4]	@ zero_extendqisi2
 2194 000c FFF7FEFF 		bl	protocol_process_byte
 2195              	.LVL205:
 559:src/protocol_handler.c ****     for (uint16_t i = 0; i < length; i++) {
 2196              		.loc 1 559 38 discriminator 3 view .LVU636
 559:src/protocol_handler.c ****     for (uint16_t i = 0; i < length; i++) {
 2197              		.loc 1 559 39 is_stmt 0 discriminator 3 view .LVU637
 2198 0010 0134     		adds	r4, r4, #1
 2199              	.LVL206:
 559:src/protocol_handler.c ****     for (uint16_t i = 0; i < length; i++) {
 2200              		.loc 1 559 39 discriminator 3 view .LVU638
 2201 0012 A4B2     		uxth	r4, r4
 2202              	.LVL207:
 2203              	.L149:
 559:src/protocol_handler.c ****     for (uint16_t i = 0; i < length; i++) {
 2204              		.loc 1 559 26 is_stmt 1 discriminator 1 view .LVU639
 559:src/protocol_handler.c ****     for (uint16_t i = 0; i < length; i++) {
 2205              		.loc 1 559 5 is_stmt 0 discriminator 1 view .LVU640
 2206 0014 AC42     		cmp	r4, r5
 2207 0016 F8D3     		bcc	.L150
 2208              	.LBE15:
 561:src/protocol_handler.c ****     }
 562:src/protocol_handler.c **** }
 2209              		.loc 1 562 1 view .LVU641
 2210 0018 70BD     		pop	{r4, r5, r6, pc}
 2211              		.loc 1 562 1 view .LVU642
 2212              		.cfi_endproc
ARM GAS  C:\WINDOWS\cciIg2oO.s 			page 59


 2213              	.LFE22:
 2215              		.section	.text.protocol_send_can_frame,"ax",%progbits
 2216              		.align	1
 2217              		.global	protocol_send_can_frame
 2218              		.syntax unified
 2219              		.thumb
 2220              		.thumb_func
 2222              	protocol_send_can_frame:
 2223              	.LVL208:
 2224              	.LFB23:
 563:src/protocol_handler.c **** 
 564:src/protocol_handler.c **** /**
 565:src/protocol_handler.c ****  * @brief Send a CAN frame upload notification to the App.
 566:src/protocol_handler.c ****  * @param frame     Received CAN frame
 567:src/protocol_handler.c ****  */
 568:src/protocol_handler.c **** void protocol_send_can_frame(const can_frame_t *frame)
 569:src/protocol_handler.c **** {
 2225              		.loc 1 569 1 is_stmt 1 view -0
 2226              		.cfi_startproc
 2227              		@ args = 0, pretend = 0, frame = 32
 2228              		@ frame_needed = 0, uses_anonymous_args = 0
 2229              		.loc 1 569 1 is_stmt 0 view .LVU644
 2230 0000 10B5     		push	{r4, lr}
 2231              	.LCFI76:
 2232              		.cfi_def_cfa_offset 8
 2233              		.cfi_offset 4, -8
 2234              		.cfi_offset 14, -4
 2235 0002 88B0     		sub	sp, sp, #32
 2236              	.LCFI77:
 2237              		.cfi_def_cfa_offset 40
 2238 0004 0446     		mov	r4, r0
 570:src/protocol_handler.c ****     can_frame_up_t up;
 2239              		.loc 1 570 5 is_stmt 1 view .LVU645
 571:src/protocol_handler.c ****     memset(&up, 0, sizeof(up));
 2240              		.loc 1 571 5 view .LVU646
 2241 0006 0023     		movs	r3, #0
 2242 0008 0393     		str	r3, [sp, #12]
 2243 000a 0493     		str	r3, [sp, #16]
 2244 000c 0593     		str	r3, [sp, #20]
 2245 000e 0693     		str	r3, [sp, #24]
 2246 0010 CDF81B30 		str	r3, [sp, #27]	@ unaligned
 572:src/protocol_handler.c ****     up.timestamp = frame->timestamp;
 2247              		.loc 1 572 5 view .LVU647
 2248              		.loc 1 572 25 is_stmt 0 view .LVU648
 2249 0014 0369     		ldr	r3, [r0, #16]
 2250              		.loc 1 572 18 view .LVU649
 2251 0016 0393     		str	r3, [sp, #12]
 573:src/protocol_handler.c ****     up.can_id    = frame->id;
 2252              		.loc 1 573 5 is_stmt 1 view .LVU650
 2253              		.loc 1 573 25 is_stmt 0 view .LVU651
 2254 0018 0368     		ldr	r3, [r0]
 2255              		.loc 1 573 18 view .LVU652
 2256 001a 0493     		str	r3, [sp, #16]
 574:src/protocol_handler.c ****     up.dlc       = frame->dlc;
 2257              		.loc 1 574 5 is_stmt 1 view .LVU653
 2258              		.loc 1 574 25 is_stmt 0 view .LVU654
 2259 001c 037B     		ldrb	r3, [r0, #12]	@ zero_extendqisi2
ARM GAS  C:\WINDOWS\cciIg2oO.s 			page 60


 2260              		.loc 1 574 18 view .LVU655
 2261 001e 8DF81430 		strb	r3, [sp, #20]
 575:src/protocol_handler.c ****     up.channel   = frame->channel;
 2262              		.loc 1 575 5 is_stmt 1 view .LVU656
 2263              		.loc 1 575 25 is_stmt 0 view .LVU657
 2264 0022 C37B     		ldrb	r3, [r0, #15]	@ zero_extendqisi2
 2265              		.loc 1 575 18 view .LVU658
 2266 0024 8DF81E30 		strb	r3, [sp, #30]
 576:src/protocol_handler.c ****     if (frame->ide)            up.flags |= 0x01;
 2267              		.loc 1 576 5 is_stmt 1 view .LVU659
 2268              		.loc 1 576 14 is_stmt 0 view .LVU660
 2269 0028 437B     		ldrb	r3, [r0, #13]	@ zero_extendqisi2
 2270              		.loc 1 576 8 view .LVU661
 2271 002a 13B1     		cbz	r3, .L153
 2272              		.loc 1 576 32 is_stmt 1 discriminator 1 view .LVU662
 2273              		.loc 1 576 41 is_stmt 0 discriminator 1 view .LVU663
 2274 002c 0123     		movs	r3, #1
 2275 002e 8DF81530 		strb	r3, [sp, #21]
 2276              	.L153:
 577:src/protocol_handler.c ****     if (frame->rtr)            up.flags |= 0x02;
 2277              		.loc 1 577 5 is_stmt 1 view .LVU664
 2278              		.loc 1 577 14 is_stmt 0 view .LVU665
 2279 0032 A37B     		ldrb	r3, [r4, #14]	@ zero_extendqisi2
 2280              		.loc 1 577 8 view .LVU666
 2281 0034 2BB1     		cbz	r3, .L154
 2282              		.loc 1 577 32 is_stmt 1 discriminator 1 view .LVU667
 2283              		.loc 1 577 41 is_stmt 0 discriminator 1 view .LVU668
 2284 0036 9DF81530 		ldrb	r3, [sp, #21]	@ zero_extendqisi2
 2285 003a 43F00203 		orr	r3, r3, #2
 2286 003e 8DF81530 		strb	r3, [sp, #21]
 2287              	.L154:
 578:src/protocol_handler.c ****     if (frame->is_error_frame) up.flags |= 0x04;
 2288              		.loc 1 578 5 is_stmt 1 view .LVU669
 2289              		.loc 1 578 14 is_stmt 0 view .LVU670
 2290 0042 237D     		ldrb	r3, [r4, #20]	@ zero_extendqisi2
 2291              		.loc 1 578 8 view .LVU671
 2292 0044 2BB1     		cbz	r3, .L155
 2293              		.loc 1 578 32 is_stmt 1 discriminator 1 view .LVU672
 2294              		.loc 1 578 41 is_stmt 0 discriminator 1 view .LVU673
 2295 0046 9DF81530 		ldrb	r3, [sp, #21]	@ zero_extendqisi2
 2296 004a 43F00403 		orr	r3, r3, #4
 2297 004e 8DF81530 		strb	r3, [sp, #21]
 2298              	.L155:
 579:src/protocol_handler.c ****     memcpy(up.data, frame->data, frame->dlc > 8 ? 8 : frame->dlc);
 2299              		.loc 1 579 5 is_stmt 1 view .LVU674
 2300              		.loc 1 579 39 is_stmt 0 view .LVU675
 2301 0052 227B     		ldrb	r2, [r4, #12]	@ zero_extendqisi2
 2302              		.loc 1 579 5 view .LVU676
 2303 0054 082A     		cmp	r2, #8
 2304 0056 28BF     		it	cs
 2305 0058 0822     		movcs	r2, #8
 2306 005a 211D     		adds	r1, r4, #4
 2307 005c 0DF11600 		add	r0, sp, #22
 2308              	.LVL209:
 2309              		.loc 1 579 5 view .LVU677
 2310 0060 FFF7FEFF 		bl	memcpy
 2311              	.LVL210:
ARM GAS  C:\WINDOWS\cciIg2oO.s 			page 61


 580:src/protocol_handler.c **** 
 581:src/protocol_handler.c ****     if (frame->is_error_frame && frame->error_flags != 0) {
 2312              		.loc 1 581 5 is_stmt 1 view .LVU678
 2313              		.loc 1 581 14 is_stmt 0 view .LVU679
 2314 0064 237D     		ldrb	r3, [r4, #20]	@ zero_extendqisi2
 2315              		.loc 1 581 8 view .LVU680
 2316 0066 0BB1     		cbz	r3, .L156
 2317              		.loc 1 581 39 discriminator 1 view .LVU681
 2318 0068 A369     		ldr	r3, [r4, #24]
 2319              		.loc 1 581 31 discriminator 1 view .LVU682
 2320 006a 33B9     		cbnz	r3, .L158
 2321              	.L156:
 582:src/protocol_handler.c ****         /* Also send an error notification */
 583:src/protocol_handler.c ****         error_notify_t err;
 584:src/protocol_handler.c ****         memset(&err, 0, sizeof(err));
 585:src/protocol_handler.c ****         err.source_module = 0; /* CAN */
 586:src/protocol_handler.c ****         err.error_flags   = (uint16_t)(frame->error_flags & 0xFFFF);
 587:src/protocol_handler.c ****         err.timestamp     = frame->timestamp;
 588:src/protocol_handler.c ****         err.error_code    = ERR_HARDWARE_FAULT;
 589:src/protocol_handler.c ****         proto_send_data(MSG_ERROR_NOTIFY, (const uint8_t *)&err, sizeof(err));
 590:src/protocol_handler.c ****     }
 591:src/protocol_handler.c **** 
 592:src/protocol_handler.c ****     proto_send_data(MSG_CAN_FRAME_UP, (const uint8_t *)&up, sizeof(up));
 2322              		.loc 1 592 5 is_stmt 1 view .LVU683
 2323 006c 1322     		movs	r2, #19
 2324 006e 03A9     		add	r1, sp, #12
 2325 0070 9020     		movs	r0, #144
 2326 0072 FFF7FEFF 		bl	proto_send_data
 2327              	.LVL211:
 593:src/protocol_handler.c **** }
 2328              		.loc 1 593 1 is_stmt 0 view .LVU684
 2329 0076 08B0     		add	sp, sp, #32
 2330              	.LCFI78:
 2331              		.cfi_remember_state
 2332              		.cfi_def_cfa_offset 8
 2333              		@ sp needed
 2334 0078 10BD     		pop	{r4, pc}
 2335              	.LVL212:
 2336              	.L158:
 2337              	.LCFI79:
 2338              		.cfi_restore_state
 2339              	.LBB16:
 583:src/protocol_handler.c ****         memset(&err, 0, sizeof(err));
 2340              		.loc 1 583 9 is_stmt 1 view .LVU685
 584:src/protocol_handler.c ****         err.source_module = 0; /* CAN */
 2341              		.loc 1 584 9 view .LVU686
 2342 007a 0022     		movs	r2, #0
 2343 007c 0192     		str	r2, [sp, #4]
 2344 007e 0292     		str	r2, [sp, #8]
 585:src/protocol_handler.c ****         err.error_flags   = (uint16_t)(frame->error_flags & 0xFFFF);
 2345              		.loc 1 585 9 view .LVU687
 586:src/protocol_handler.c ****         err.timestamp     = frame->timestamp;
 2346              		.loc 1 586 9 view .LVU688
 586:src/protocol_handler.c ****         err.timestamp     = frame->timestamp;
 2347              		.loc 1 586 27 is_stmt 0 view .LVU689
 2348 0080 ADF80630 		strh	r3, [sp, #6]	@ movhi
 587:src/protocol_handler.c ****         err.error_code    = ERR_HARDWARE_FAULT;
ARM GAS  C:\WINDOWS\cciIg2oO.s 			page 62


 2349              		.loc 1 587 9 is_stmt 1 view .LVU690
 587:src/protocol_handler.c ****         err.error_code    = ERR_HARDWARE_FAULT;
 2350              		.loc 1 587 34 is_stmt 0 view .LVU691
 2351 0084 2369     		ldr	r3, [r4, #16]
 587:src/protocol_handler.c ****         err.error_code    = ERR_HARDWARE_FAULT;
 2352              		.loc 1 587 27 view .LVU692
 2353 0086 0293     		str	r3, [sp, #8]
 588:src/protocol_handler.c ****         proto_send_data(MSG_ERROR_NOTIFY, (const uint8_t *)&err, sizeof(err));
 2354              		.loc 1 588 9 is_stmt 1 view .LVU693
 588:src/protocol_handler.c ****         proto_send_data(MSG_ERROR_NOTIFY, (const uint8_t *)&err, sizeof(err));
 2355              		.loc 1 588 27 is_stmt 0 view .LVU694
 2356 0088 FF23     		movs	r3, #255
 2357 008a 8DF80430 		strb	r3, [sp, #4]
 589:src/protocol_handler.c ****     }
 2358              		.loc 1 589 9 is_stmt 1 view .LVU695
 2359 008e 0822     		movs	r2, #8
 2360 0090 01A9     		add	r1, sp, #4
 2361 0092 9220     		movs	r0, #146
 2362 0094 FFF7FEFF 		bl	proto_send_data
 2363              	.LVL213:
 2364 0098 E8E7     		b	.L156
 2365              	.LBE16:
 2366              		.cfi_endproc
 2367              	.LFE23:
 2369              		.section	.text.protocol_send_adc_data,"ax",%progbits
 2370              		.align	1
 2371              		.global	protocol_send_adc_data
 2372              		.syntax unified
 2373              		.thumb
 2374              		.thumb_func
 2376              	protocol_send_adc_data:
 2377              	.LVL214:
 2378              	.LFB24:
 594:src/protocol_handler.c **** 
 595:src/protocol_handler.c **** /**
 596:src/protocol_handler.c ****  * @brief Send an ADC data upload notification to the App.
 597:src/protocol_handler.c ****  * @param data      ADC sample data
 598:src/protocol_handler.c ****  */
 599:src/protocol_handler.c **** void protocol_send_adc_data(const adc_sample_data_t *data)
 600:src/protocol_handler.c **** {
 2379              		.loc 1 600 1 view -0
 2380              		.cfi_startproc
 2381              		@ args = 0, pretend = 0, frame = 0
 2382              		@ frame_needed = 0, uses_anonymous_args = 0
 2383              		.loc 1 600 1 is_stmt 0 view .LVU697
 2384 0000 2DE9F041 		push	{r4, r5, r6, r7, r8, lr}
 2385              	.LCFI80:
 2386              		.cfi_def_cfa_offset 24
 2387              		.cfi_offset 4, -24
 2388              		.cfi_offset 5, -20
 2389              		.cfi_offset 6, -16
 2390              		.cfi_offset 7, -12
 2391              		.cfi_offset 8, -8
 2392              		.cfi_offset 14, -4
 2393 0004 0546     		mov	r5, r0
 601:src/protocol_handler.c ****     /* Use static buffer to avoid heap allocation on embedded targets */
 602:src/protocol_handler.c ****     static uint8_t s_adc_tx_buf[PROTOCOL_FRAME_TOTAL_MAX];
ARM GAS  C:\WINDOWS\cciIg2oO.s 			page 63


 2394              		.loc 1 602 5 is_stmt 1 view .LVU698
 603:src/protocol_handler.c **** 
 604:src/protocol_handler.c ****     uint16_t payload_hdr_size = sizeof(adc_data_up_t) - sizeof(uint16_t);
 2395              		.loc 1 604 5 view .LVU699
 2396              	.LVL215:
 605:src/protocol_handler.c ****     uint16_t sample_bytes = data->count * sizeof(uint16_t);
 2397              		.loc 1 605 5 view .LVU700
 2398              		.loc 1 605 33 is_stmt 0 view .LVU701
 2399 0006 0389     		ldrh	r3, [r0, #8]
 2400              		.loc 1 605 14 view .LVU702
 2401 0008 5E00     		lsls	r6, r3, #1
 2402 000a B6B2     		uxth	r6, r6
 2403              	.LVL216:
 606:src/protocol_handler.c **** 
 607:src/protocol_handler.c ****     /* Cap to buffer limit */
 608:src/protocol_handler.c ****     uint16_t max_samples = (PROTOCOL_FRAME_DATA_MAX - payload_hdr_size) / sizeof(uint16_t);
 2404              		.loc 1 608 5 is_stmt 1 view .LVU703
 609:src/protocol_handler.c ****     if (data->count > max_samples) {
 2405              		.loc 1 609 5 view .LVU704
 2406              		.loc 1 609 8 is_stmt 0 view .LVU705
 2407 000c 792B     		cmp	r3, #121
 2408 000e 00D9     		bls	.L160
 610:src/protocol_handler.c ****         /* Send only the first batch; caller should iterate for remaining */
 611:src/protocol_handler.c ****         sample_bytes = max_samples * sizeof(uint16_t);
 2409              		.loc 1 611 22 view .LVU706
 2410 0010 F226     		movs	r6, #242
 2411              	.LVL217:
 2412              	.L160:
 612:src/protocol_handler.c ****     }
 613:src/protocol_handler.c ****     uint16_t actual_count = sample_bytes / sizeof(uint16_t);
 2413              		.loc 1 613 5 is_stmt 1 view .LVU707
 2414              		.loc 1 613 14 is_stmt 0 view .LVU708
 2415 0012 4FEA5608 		lsr	r8, r6, #1
 2416              	.LVL218:
 614:src/protocol_handler.c ****     uint16_t total_payload = payload_hdr_size + sample_bytes;
 2417              		.loc 1 614 5 is_stmt 1 view .LVU709
 2418              		.loc 1 614 14 is_stmt 0 view .LVU710
 2419 0016 06F10E07 		add	r7, r6, #14
 2420 001a BFB2     		uxth	r7, r7
 2421              	.LVL219:
 615:src/protocol_handler.c **** 
 616:src/protocol_handler.c ****     memset(s_adc_tx_buf, 0, sizeof(s_adc_tx_buf));
 2422              		.loc 1 616 5 is_stmt 1 view .LVU711
 2423 001c 0D4C     		ldr	r4, .L163
 2424 001e 40F20912 		movw	r2, #265
 2425 0022 0021     		movs	r1, #0
 2426 0024 2046     		mov	r0, r4
 2427              	.LVL220:
 2428              		.loc 1 616 5 is_stmt 0 view .LVU712
 2429 0026 FFF7FEFF 		bl	memset
 2430              	.LVL221:
 617:src/protocol_handler.c ****     adc_data_up_t *up = (adc_data_up_t *)s_adc_tx_buf;
 2431              		.loc 1 617 5 is_stmt 1 view .LVU713
 618:src/protocol_handler.c ****     up->timestamp   = data->timestamp;
 2432              		.loc 1 618 5 view .LVU714
 2433              		.loc 1 618 27 is_stmt 0 view .LVU715
 2434 002a 2B68     		ldr	r3, [r5]
ARM GAS  C:\WINDOWS\cciIg2oO.s 			page 64


 2435              		.loc 1 618 21 view .LVU716
 2436 002c 2360     		str	r3, [r4]
 619:src/protocol_handler.c ****     up->sample_rate = 0;
 2437              		.loc 1 619 5 is_stmt 1 view .LVU717
 620:src/protocol_handler.c ****     up->sample_count = actual_count;
 2438              		.loc 1 620 5 view .LVU718
 2439              		.loc 1 620 22 is_stmt 0 view .LVU719
 2440 002e A4F80880 		strh	r8, [r4, #8]	@ movhi
 621:src/protocol_handler.c ****     up->resolution  = data->resolution;
 2441              		.loc 1 621 5 is_stmt 1 view .LVU720
 2442              		.loc 1 621 27 is_stmt 0 view .LVU721
 2443 0032 2B7B     		ldrb	r3, [r5, #12]	@ zero_extendqisi2
 2444              		.loc 1 621 21 view .LVU722
 2445 0034 6381     		strh	r3, [r4, #10]	@ movhi
 622:src/protocol_handler.c ****     up->channel     = 0;
 2446              		.loc 1 622 5 is_stmt 1 view .LVU723
 623:src/protocol_handler.c ****     up->mode        = (uint8_t)data->source;
 2447              		.loc 1 623 5 view .LVU724
 2448              		.loc 1 623 36 is_stmt 0 view .LVU725
 2449 0036 6B7B     		ldrb	r3, [r5, #13]	@ zero_extendqisi2
 2450              		.loc 1 623 21 view .LVU726
 2451 0038 6373     		strb	r3, [r4, #13]
 624:src/protocol_handler.c ****     memcpy(up->samples, data->buffer, sample_bytes);
 2452              		.loc 1 624 5 is_stmt 1 view .LVU727
 2453 003a 3246     		mov	r2, r6
 2454 003c 6968     		ldr	r1, [r5, #4]
 2455 003e 04F10E00 		add	r0, r4, #14
 2456 0042 FFF7FEFF 		bl	memcpy
 2457              	.LVL222:
 625:src/protocol_handler.c **** 
 626:src/protocol_handler.c ****     proto_send_data(MSG_ADC_DATA_UP, s_adc_tx_buf, total_payload);
 2458              		.loc 1 626 5 view .LVU728
 2459 0046 3A46     		mov	r2, r7
 2460 0048 2146     		mov	r1, r4
 2461 004a 9120     		movs	r0, #145
 2462 004c FFF7FEFF 		bl	proto_send_data
 2463              	.LVL223:
 627:src/protocol_handler.c **** }
 2464              		.loc 1 627 1 is_stmt 0 view .LVU729
 2465 0050 BDE8F081 		pop	{r4, r5, r6, r7, r8, pc}
 2466              	.LVL224:
 2467              	.L164:
 2468              		.loc 1 627 1 view .LVU730
 2469              		.align	2
 2470              	.L163:
 2471 0054 00000000 		.word	.LANCHOR5
 2472              		.cfi_endproc
 2473              	.LFE24:
 2475              		.section	.text.protocol_send_heartbeat,"ax",%progbits
 2476              		.align	1
 2477              		.global	protocol_send_heartbeat
 2478              		.syntax unified
 2479              		.thumb
 2480              		.thumb_func
 2482              	protocol_send_heartbeat:
 2483              	.LFB25:
 628:src/protocol_handler.c **** 
ARM GAS  C:\WINDOWS\cciIg2oO.s 			page 65


 629:src/protocol_handler.c **** /**
 630:src/protocol_handler.c ****  * @brief Send a device heartbeat frame (called once on boot).
 631:src/protocol_handler.c ****  * @return 0 on success
 632:src/protocol_handler.c ****  */
 633:src/protocol_handler.c **** int protocol_send_heartbeat(void)
 634:src/protocol_handler.c **** {
 2484              		.loc 1 634 1 is_stmt 1 view -0
 2485              		.cfi_startproc
 2486              		@ args = 0, pretend = 0, frame = 112
 2487              		@ frame_needed = 0, uses_anonymous_args = 0
 2488 0000 10B5     		push	{r4, lr}
 2489              	.LCFI81:
 2490              		.cfi_def_cfa_offset 8
 2491              		.cfi_offset 4, -8
 2492              		.cfi_offset 14, -4
 2493 0002 9CB0     		sub	sp, sp, #112
 2494              	.LCFI82:
 2495              		.cfi_def_cfa_offset 120
 635:src/protocol_handler.c ****     device_heartbeat_t hb;
 2496              		.loc 1 635 5 view .LVU732
 636:src/protocol_handler.c ****     memset(&hb, 0, sizeof(hb));
 2497              		.loc 1 636 5 view .LVU733
 2498 0004 2424     		movs	r4, #36
 2499 0006 2246     		mov	r2, r4
 2500 0008 0021     		movs	r1, #0
 2501 000a 13A8     		add	r0, sp, #76
 2502 000c FFF7FEFF 		bl	memset
 2503              	.LVL225:
 637:src/protocol_handler.c ****     device_info_t info;
 2504              		.loc 1 637 5 view .LVU734
 638:src/protocol_handler.c ****     device_get_info(&info);
 2505              		.loc 1 638 5 view .LVU735
 2506 0010 01A8     		add	r0, sp, #4
 2507 0012 FFF7FEFF 		bl	device_get_info
 2508              	.LVL226:
 639:src/protocol_handler.c ****     strncpy(hb.mcu_model, info.mcu_model, sizeof(hb.mcu_model) - 1);
 2509              		.loc 1 639 5 view .LVU736
 2510 0016 1F22     		movs	r2, #31
 2511 0018 0DF10701 		add	r1, sp, #7
 2512 001c 13A8     		add	r0, sp, #76
 2513 001e FFF7FEFF 		bl	strncpy
 2514              	.LVL227:
 640:src/protocol_handler.c ****     hb.fw_major = info.fw_major;
 2515              		.loc 1 640 5 view .LVU737
 2516              		.loc 1 640 23 is_stmt 0 view .LVU738
 2517 0022 9DF80430 		ldrb	r3, [sp, #4]	@ zero_extendqisi2
 2518              		.loc 1 640 17 view .LVU739
 2519 0026 8DF86C30 		strb	r3, [sp, #108]
 641:src/protocol_handler.c ****     hb.fw_minor = info.fw_minor;
 2520              		.loc 1 641 5 is_stmt 1 view .LVU740
 2521              		.loc 1 641 23 is_stmt 0 view .LVU741
 2522 002a 9DF80530 		ldrb	r3, [sp, #5]	@ zero_extendqisi2
 2523              		.loc 1 641 17 view .LVU742
 2524 002e 8DF86D30 		strb	r3, [sp, #109]
 642:src/protocol_handler.c ****     hb.fw_patch = info.fw_patch;
 2525              		.loc 1 642 5 is_stmt 1 view .LVU743
 2526              		.loc 1 642 23 is_stmt 0 view .LVU744
ARM GAS  C:\WINDOWS\cciIg2oO.s 			page 66


 2527 0032 9DF80630 		ldrb	r3, [sp, #6]	@ zero_extendqisi2
 2528              		.loc 1 642 17 view .LVU745
 2529 0036 8DF86E30 		strb	r3, [sp, #110]
 643:src/protocol_handler.c ****     hb.comm_interface = (uint8_t)comm_get_current_interface();
 2530              		.loc 1 643 5 is_stmt 1 view .LVU746
 2531              		.loc 1 643 34 is_stmt 0 view .LVU747
 2532 003a FFF7FEFF 		bl	comm_get_current_interface
 2533              	.LVL228:
 2534              		.loc 1 643 23 view .LVU748
 2535 003e 8DF86F00 		strb	r0, [sp, #111]
 644:src/protocol_handler.c **** 
 645:src/protocol_handler.c ****     return proto_send_data(MSG_DEVICE_HEARTBEAT,
 2536              		.loc 1 645 5 is_stmt 1 view .LVU749
 2537              		.loc 1 645 12 is_stmt 0 view .LVU750
 2538 0042 2246     		mov	r2, r4
 2539 0044 13A9     		add	r1, sp, #76
 2540 0046 9320     		movs	r0, #147
 2541 0048 FFF7FEFF 		bl	proto_send_data
 2542              	.LVL229:
 646:src/protocol_handler.c ****                            (const uint8_t *)&hb, sizeof(hb));
 647:src/protocol_handler.c **** }
 2543              		.loc 1 647 1 view .LVU751
 2544 004c 1CB0     		add	sp, sp, #112
 2545              	.LCFI83:
 2546              		.cfi_def_cfa_offset 8
 2547              		@ sp needed
 2548 004e 10BD     		pop	{r4, pc}
 2549              		.cfi_endproc
 2550              	.LFE25:
 2552              		.section	.text.protocol_reset,"ax",%progbits
 2553              		.align	1
 2554              		.global	protocol_reset
 2555              		.syntax unified
 2556              		.thumb
 2557              		.thumb_func
 2559              	protocol_reset:
 2560              	.LFB26:
 648:src/protocol_handler.c **** 
 649:src/protocol_handler.c **** /**
 650:src/protocol_handler.c ****  * @brief Reset the protocol parser state machine.
 651:src/protocol_handler.c ****  */
 652:src/protocol_handler.c **** void protocol_reset(void)
 653:src/protocol_handler.c **** {
 2561              		.loc 1 653 1 is_stmt 1 view -0
 2562              		.cfi_startproc
 2563              		@ args = 0, pretend = 0, frame = 0
 2564              		@ frame_needed = 0, uses_anonymous_args = 0
 2565              		@ link register save eliminated.
 654:src/protocol_handler.c ****     g_rx_buf_pos = 0;
 2566              		.loc 1 654 5 view .LVU753
 2567              		.loc 1 654 18 is_stmt 0 view .LVU754
 2568 0000 0023     		movs	r3, #0
 2569 0002 034A     		ldr	r2, .L168
 2570 0004 1380     		strh	r3, [r2]	@ movhi
 655:src/protocol_handler.c ****     g_rx_expected_len = 0;
 2571              		.loc 1 655 5 is_stmt 1 view .LVU755
 2572              		.loc 1 655 23 is_stmt 0 view .LVU756
ARM GAS  C:\WINDOWS\cciIg2oO.s 			page 67


 2573 0006 034A     		ldr	r2, .L168+4
 2574 0008 1380     		strh	r3, [r2]	@ movhi
 656:src/protocol_handler.c ****     g_seq_counter = 0;
 2575              		.loc 1 656 5 is_stmt 1 view .LVU757
 2576              		.loc 1 656 19 is_stmt 0 view .LVU758
 2577 000a 034A     		ldr	r2, .L168+8
 2578 000c 1380     		strh	r3, [r2]	@ movhi
 657:src/protocol_handler.c **** }
 2579              		.loc 1 657 1 view .LVU759
 2580 000e 7047     		bx	lr
 2581              	.L169:
 2582              		.align	2
 2583              	.L168:
 2584 0010 00000000 		.word	.LANCHOR1
 2585 0014 00000000 		.word	.LANCHOR3
 2586 0018 00000000 		.word	.LANCHOR0
 2587              		.cfi_endproc
 2588              	.LFE26:
 2590              		.section	.bss.g_rx_buf,"aw",%nobits
 2591              		.align	2
 2592              		.set	.LANCHOR2,. + 0
 2595              	g_rx_buf:
 2596 0000 00000000 		.space	265
 2596      00000000 
 2596      00000000 
 2596      00000000 
 2596      00000000 
 2597              		.section	.bss.g_rx_buf_pos,"aw",%nobits
 2598              		.align	1
 2599              		.set	.LANCHOR1,. + 0
 2602              	g_rx_buf_pos:
 2603 0000 0000     		.space	2
 2604              		.section	.bss.g_rx_expected_len,"aw",%nobits
 2605              		.align	1
 2606              		.set	.LANCHOR3,. + 0
 2609              	g_rx_expected_len:
 2610 0000 0000     		.space	2
 2611              		.section	.bss.g_seq_counter,"aw",%nobits
 2612              		.align	1
 2613              		.set	.LANCHOR0,. + 0
 2616              	g_seq_counter:
 2617 0000 0000     		.space	2
 2618              		.section	.bss.s_adc_tx_buf.0,"aw",%nobits
 2619              		.align	2
 2620              		.set	.LANCHOR5,. + 0
 2623              	s_adc_tx_buf.0:
 2624 0000 00000000 		.space	265
 2624      00000000 
 2624      00000000 
 2624      00000000 
 2624      00000000 
 2625              		.section	.rodata.g_cmd_table,"a"
 2626              		.align	2
 2627              		.set	.LANCHOR4,. + 0
 2630              	g_cmd_table:
 2631 0000 01       		.byte	1
 2632 0001 000000   		.space	3
ARM GAS  C:\WINDOWS\cciIg2oO.s 			page 68


 2633 0004 00000000 		.word	handle_get_info
 2634 0008 02       		.byte	2
 2635 0009 000000   		.space	3
 2636 000c 00000000 		.word	handle_get_capabilities
 2637 0010 03       		.byte	3
 2638 0011 000000   		.space	3
 2639 0014 00000000 		.word	handle_get_status
 2640 0018 04       		.byte	4
 2641 0019 000000   		.space	3
 2642 001c 00000000 		.word	handle_get_adc_status
 2643 0020 10       		.byte	16
 2644 0021 000000   		.space	3
 2645 0024 00000000 		.word	handle_can_set_baudrate
 2646 0028 11       		.byte	17
 2647 0029 000000   		.space	3
 2648 002c 00000000 		.word	handle_can_set_mode
 2649 0030 12       		.byte	18
 2650 0031 000000   		.space	3
 2651 0034 00000000 		.word	handle_can_set_filter
 2652 0038 20       		.byte	32
 2653 0039 000000   		.space	3
 2654 003c 00000000 		.word	handle_adc_set_sampling
 2655 0040 28       		.byte	40
 2656 0041 000000   		.space	3
 2657 0044 00000000 		.word	handle_comm_set_interface
 2658 0048 30       		.byte	48
 2659 0049 000000   		.space	3
 2660 004c 00000000 		.word	handle_can_start_listen
 2661 0050 31       		.byte	49
 2662 0051 000000   		.space	3
 2663 0054 00000000 		.word	handle_can_stop_listen
 2664 0058 32       		.byte	50
 2665 0059 000000   		.space	3
 2666 005c 00000000 		.word	handle_adc_start_sample
 2667 0060 33       		.byte	51
 2668 0061 000000   		.space	3
 2669 0064 00000000 		.word	handle_adc_stop_sample
 2670 0068 34       		.byte	52
 2671 0069 000000   		.space	3
 2672 006c 00000000 		.word	handle_can_send_frame
 2673 0070 3F       		.byte	63
 2674 0071 000000   		.space	3
 2675 0074 00000000 		.word	handle_system_reset
 2676              		.text
 2677              	.Letext0:
 2678              		.file 2 "d:\\stm32\\environment\\gcc-arm-none-eabi-10.3-2021.10\\arm-none-eabi\\include\\machine\\
 2679              		.file 3 "d:\\stm32\\environment\\gcc-arm-none-eabi-10.3-2021.10\\arm-none-eabi\\include\\sys\\_std
 2680              		.file 4 "d:\\stm32\\environment\\gcc-arm-none-eabi-10.3-2021.10\\lib\\gcc\\arm-none-eabi\\10.3.1\\
 2681              		.file 5 "./inc/protocol.h"
 2682              		.file 6 "./inc/can_api.h"
 2683              		.file 7 "./inc/adc_api.h"
 2684              		.file 8 "./inc/comm_api.h"
 2685              		.file 9 "./inc/device_api.h"
 2686              		.file 10 "d:\\stm32\\environment\\gcc-arm-none-eabi-10.3-2021.10\\arm-none-eabi\\include\\string.h
 2687              		.file 11 "<built-in>"
ARM GAS  C:\WINDOWS\cciIg2oO.s 			page 69

